	.file	"FieldDataCPU.cpp"
	.text
.Ltext0:
	.section	.text._ZN9FieldDataD2Ev,"axG",@progbits,_ZN9FieldDataD5Ev,comdat
	.align 2
	.p2align 4,,15
	.weak	_ZN9FieldDataD2Ev
	.type	_ZN9FieldDataD2Ev, @function
_ZN9FieldDataD2Ev:
.LFB2186:
	.file 1 "FieldData.h"
	.loc 1 29 0
	.cfi_startproc
.LVL0:
.LBB1050:
	.loc 1 29 0
	movq	_ZTV9FieldData@GOTPCREL(%rip), %rax
	addq	$16, %rax
	movq	%rax, (%rdi)
.LBE1050:
	ret
	.cfi_endproc
.LFE2186:
	.size	_ZN9FieldDataD2Ev, .-_ZN9FieldDataD2Ev
	.section	.text._ZN9FieldData8allocateEiiii,"axG",@progbits,_ZN9FieldData8allocateEiiii,comdat
	.align 2
	.p2align 4,,15
	.weak	_ZN9FieldData8allocateEiiii
	.type	_ZN9FieldData8allocateEiiii, @function
_ZN9FieldData8allocateEiiii:
.LFB2189:
	.loc 1 31 0
	.cfi_startproc
.LVL1:
	.loc 1 31 0
	ret
	.cfi_endproc
.LFE2189:
	.size	_ZN9FieldData8allocateEiiii, .-_ZN9FieldData8allocateEiiii
	.section	.text._ZN9FieldData8allocateEP10PlasmaData,"axG",@progbits,_ZN9FieldData8allocateEP10PlasmaData,comdat
	.align 2
	.p2align 4,,15
	.weak	_ZN9FieldData8allocateEP10PlasmaData
	.type	_ZN9FieldData8allocateEP10PlasmaData, @function
_ZN9FieldData8allocateEP10PlasmaData:
.LFB2190:
	.loc 1 33 0
	.cfi_startproc
.LVL2:
	.loc 1 33 0
	ret
	.cfi_endproc
.LFE2190:
	.size	_ZN9FieldData8allocateEP10PlasmaData, .-_ZN9FieldData8allocateEP10PlasmaData
	.section	.text._ZN9FieldData8get_divsEddd,"axG",@progbits,_ZN9FieldData8get_divsEddd,comdat
	.align 2
	.p2align 4,,15
	.weak	_ZN9FieldData8get_divsEddd
	.type	_ZN9FieldData8get_divsEddd, @function
_ZN9FieldData8get_divsEddd:
.LFB2191:
	.loc 1 38 0
	.cfi_startproc
.LVL3:
	.loc 1 38 0
	vpxor	%xmm0, %xmm0, %xmm0
.LVL4:
	vxorps	%xmm1, %xmm1, %xmm1
.LVL5:
	ret
	.cfi_endproc
.LFE2191:
	.size	_ZN9FieldData8get_divsEddd, .-_ZN9FieldData8get_divsEddd
	.section	.text._ZN9FieldData8get_divsEv,"axG",@progbits,_ZN9FieldData8get_divsEv,comdat
	.align 2
	.p2align 4,,15
	.weak	_ZN9FieldData8get_divsEv
	.type	_ZN9FieldData8get_divsEv, @function
_ZN9FieldData8get_divsEv:
.LFB2192:
	.loc 1 40 0
	.cfi_startproc
.LVL6:
	.loc 1 40 0
	vpxor	%xmm0, %xmm0, %xmm0
	vxorps	%xmm1, %xmm1, %xmm1
	ret
	.cfi_endproc
.LFE2192:
	.size	_ZN9FieldData8get_divsEv, .-_ZN9FieldData8get_divsEv
	.section	.text._ZN9FieldData6intrpEEdddiiii15FieldData_deriv,"axG",@progbits,_ZN9FieldData6intrpEEdddiiii15FieldData_deriv,comdat
	.align 2
	.p2align 4,,15
	.weak	_ZN9FieldData6intrpEEdddiiii15FieldData_deriv
	.type	_ZN9FieldData6intrpEEdddiiii15FieldData_deriv, @function
_ZN9FieldData6intrpEEdddiiii15FieldData_deriv:
.LFB2193:
	.loc 1 43 0
	.cfi_startproc
.LVL7:
	.loc 1 45 0
	vxorpd	%xmm0, %xmm0, %xmm0
.LVL8:
	ret
	.cfi_endproc
.LFE2193:
	.size	_ZN9FieldData6intrpEEdddiiii15FieldData_deriv, .-_ZN9FieldData6intrpEEdddiiii15FieldData_deriv
	.section	.text._ZN9FieldData6intrpBEdddiiii15FieldData_deriv,"axG",@progbits,_ZN9FieldData6intrpBEdddiiii15FieldData_deriv,comdat
	.align 2
	.p2align 4,,15
	.weak	_ZN9FieldData6intrpBEdddiiii15FieldData_deriv
	.type	_ZN9FieldData6intrpBEdddiiii15FieldData_deriv, @function
_ZN9FieldData6intrpBEdddiiii15FieldData_deriv:
.LFB2194:
	.loc 1 47 0
	.cfi_startproc
.LVL9:
	.loc 1 49 0
	vxorpd	%xmm0, %xmm0, %xmm0
.LVL10:
	ret
	.cfi_endproc
.LFE2194:
	.size	_ZN9FieldData6intrpBEdddiiii15FieldData_deriv, .-_ZN9FieldData6intrpBEdddiiii15FieldData_deriv
	.section	.text._ZN9FieldData4getEEiiii,"axG",@progbits,_ZN9FieldData4getEEiiii,comdat
	.align 2
	.p2align 4,,15
	.weak	_ZN9FieldData4getEEiiii
	.type	_ZN9FieldData4getEEiiii, @function
_ZN9FieldData4getEEiiii:
.LFB2195:
	.loc 1 51 0
	.cfi_startproc
.LVL11:
	.loc 1 51 0
	xorl	%eax, %eax
	ret
	.cfi_endproc
.LFE2195:
	.size	_ZN9FieldData4getEEiiii, .-_ZN9FieldData4getEEiiii
	.section	.text._ZN9FieldData4getBEiiii,"axG",@progbits,_ZN9FieldData4getBEiiii,comdat
	.align 2
	.p2align 4,,15
	.weak	_ZN9FieldData4getBEiiii
	.type	_ZN9FieldData4getBEiiii, @function
_ZN9FieldData4getBEiiii:
.LFB2196:
	.loc 1 53 0
	.cfi_startproc
.LVL12:
	.loc 1 53 0
	xorl	%eax, %eax
	ret
	.cfi_endproc
.LFE2196:
	.size	_ZN9FieldData4getBEiiii, .-_ZN9FieldData4getBEiiii
	.section	.text._ZN9FieldData9broadcastEPPS_P12ParallelInfo,"axG",@progbits,_ZN9FieldData9broadcastEPPS_P12ParallelInfo,comdat
	.align 2
	.p2align 4,,15
	.weak	_ZN9FieldData9broadcastEPPS_P12ParallelInfo
	.type	_ZN9FieldData9broadcastEPPS_P12ParallelInfo, @function
_ZN9FieldData9broadcastEPPS_P12ParallelInfo:
.LFB2197:
	.loc 1 55 0
	.cfi_startproc
.LVL13:
	.loc 1 55 0
	ret
	.cfi_endproc
.LFE2197:
	.size	_ZN9FieldData9broadcastEPPS_P12ParallelInfo, .-_ZN9FieldData9broadcastEPPS_P12ParallelInfo
	.section	.text._ZN9FieldData9copy_fromEPS_,"axG",@progbits,_ZN9FieldData9copy_fromEPS_,comdat
	.align 2
	.p2align 4,,15
	.weak	_ZN9FieldData9copy_fromEPS_
	.type	_ZN9FieldData9copy_fromEPS_, @function
_ZN9FieldData9copy_fromEPS_:
.LFB2198:
	.loc 1 57 0
	.cfi_startproc
.LVL14:
	.loc 1 57 0
	ret
	.cfi_endproc
.LFE2198:
	.size	_ZN9FieldData9copy_fromEPS_, .-_ZN9FieldData9copy_fromEPS_
	.section	.text._ZN9FieldData15evaluate_energyEv,"axG",@progbits,_ZN9FieldData15evaluate_energyEv,comdat
	.align 2
	.p2align 4,,15
	.weak	_ZN9FieldData15evaluate_energyEv
	.type	_ZN9FieldData15evaluate_energyEv, @function
_ZN9FieldData15evaluate_energyEv:
.LFB2199:
	.loc 1 59 0
	.cfi_startproc
.LVL15:
	.loc 1 59 0
	vxorpd	%xmm0, %xmm0, %xmm0
	ret
	.cfi_endproc
.LFE2199:
	.size	_ZN9FieldData15evaluate_energyEv, .-_ZN9FieldData15evaluate_energyEv
	.section	.text._ZN9FieldData9init_plotEv,"axG",@progbits,_ZN9FieldData9init_plotEv,comdat
	.align 2
	.p2align 4,,15
	.weak	_ZN9FieldData9init_plotEv
	.type	_ZN9FieldData9init_plotEv, @function
_ZN9FieldData9init_plotEv:
.LFB2200:
	.loc 1 62 0
	.cfi_startproc
.LVL16:
	.loc 1 62 0
	ret
	.cfi_endproc
.LFE2200:
	.size	_ZN9FieldData9init_plotEv, .-_ZN9FieldData9init_plotEv
	.section	.text._ZN9FieldData10reset_plotEv,"axG",@progbits,_ZN9FieldData10reset_plotEv,comdat
	.align 2
	.p2align 4,,15
	.weak	_ZN9FieldData10reset_plotEv
	.type	_ZN9FieldData10reset_plotEv, @function
_ZN9FieldData10reset_plotEv:
.LFB2201:
	.loc 1 64 0
	.cfi_startproc
.LVL17:
	.loc 1 64 0
	ret
	.cfi_endproc
.LFE2201:
	.size	_ZN9FieldData10reset_plotEv, .-_ZN9FieldData10reset_plotEv
	.section	.text._ZN9FieldData10close_plotEv,"axG",@progbits,_ZN9FieldData10close_plotEv,comdat
	.align 2
	.p2align 4,,15
	.weak	_ZN9FieldData10close_plotEv
	.type	_ZN9FieldData10close_plotEv, @function
_ZN9FieldData10close_plotEv:
.LFB2202:
	.loc 1 66 0
	.cfi_startproc
.LVL18:
	.loc 1 66 0
	ret
	.cfi_endproc
.LFE2202:
	.size	_ZN9FieldData10close_plotEv, .-_ZN9FieldData10close_plotEv
	.section	.text._ZN9FieldData4plotEP10PlasmaDataiiii,"axG",@progbits,_ZN9FieldData4plotEP10PlasmaDataiiii,comdat
	.align 2
	.p2align 4,,15
	.weak	_ZN9FieldData4plotEP10PlasmaDataiiii
	.type	_ZN9FieldData4plotEP10PlasmaDataiiii, @function
_ZN9FieldData4plotEP10PlasmaDataiiii:
.LFB2203:
	.loc 1 68 0
	.cfi_startproc
.LVL19:
	.loc 1 69 0
	ret
	.cfi_endproc
.LFE2203:
	.size	_ZN9FieldData4plotEP10PlasmaDataiiii, .-_ZN9FieldData4plotEP10PlasmaDataiiii
	.section	.text._ZN12FieldDataCPUD2Ev,"axG",@progbits,_ZN12FieldDataCPUD5Ev,comdat
	.align 2
	.p2align 4,,15
	.weak	_ZN12FieldDataCPUD2Ev
	.type	_ZN12FieldDataCPUD2Ev, @function
_ZN12FieldDataCPUD2Ev:
.LFB2205:
	.file 2 "FieldDataCPU.h"
	.loc 2 16 0
	.cfi_startproc
.LVL20:
.LBB1051:
.LBB1052:
.LBB1053:
.LBB1054:
	.loc 1 29 0
	movq	_ZTV9FieldData@GOTPCREL(%rip), %rax
	addq	$16, %rax
	movq	%rax, (%rdi)
.LBE1054:
.LBE1053:
.LBE1052:
.LBE1051:
	.loc 2 19 0
	ret
	.cfi_endproc
.LFE2205:
	.size	_ZN12FieldDataCPUD2Ev, .-_ZN12FieldDataCPUD2Ev
	.section	.text._ZN12FieldDataCPU8get_divsEddd,"axG",@progbits,_ZN12FieldDataCPU8get_divsEddd,comdat
	.align 2
	.p2align 4,,15
	.weak	_ZN12FieldDataCPU8get_divsEddd
	.type	_ZN12FieldDataCPU8get_divsEddd, @function
_ZN12FieldDataCPU8get_divsEddd:
.LFB2209:
	.loc 2 80 0
	.cfi_startproc
.LVL21:
	pushq	%rbp
	.cfi_def_cfa_offset 16
	.cfi_offset 6, -16
	movq	%rsp, %rbp
	.cfi_def_cfa_register 6
	andq	$-32, %rsp
	addq	$16, %rsp
	.loc 2 82 0
	vmovsd	104(%rdi), %xmm0
.LVL22:
	vmovsd	96(%rdi), %xmm2
.LVL23:
	vmovsd	112(%rdi), %xmm1
.LVL24:
	vcvtpd2psx	%xmm0, %xmm0
.LVL25:
	vcvtpd2psx	%xmm2, %xmm2
	vcvtpd2psx	%xmm1, %xmm1
.LVL26:
	vmovss	%xmm0, -44(%rsp)
	vmovss	%xmm2, -48(%rsp)
	.loc 2 83 0
	vmovq	-48(%rsp), %xmm0
.LVL27:
	leave
	.cfi_def_cfa 7, 8
.LVL28:
	ret
	.cfi_endproc
.LFE2209:
	.size	_ZN12FieldDataCPU8get_divsEddd, .-_ZN12FieldDataCPU8get_divsEddd
	.section	.text._ZN12FieldDataCPU8get_divsEv,"axG",@progbits,_ZN12FieldDataCPU8get_divsEv,comdat
	.align 2
	.p2align 4,,15
	.weak	_ZN12FieldDataCPU8get_divsEv
	.type	_ZN12FieldDataCPU8get_divsEv, @function
_ZN12FieldDataCPU8get_divsEv:
.LFB2210:
	.loc 2 85 0
	.cfi_startproc
.LVL29:
	pushq	%rbp
	.cfi_def_cfa_offset 16
	.cfi_offset 6, -16
	movq	%rsp, %rbp
	.cfi_def_cfa_register 6
	andq	$-32, %rsp
	addq	$16, %rsp
	.loc 2 87 0
	vmovsd	104(%rdi), %xmm0
	vmovsd	96(%rdi), %xmm2
	vmovsd	112(%rdi), %xmm1
	vcvtpd2psx	%xmm0, %xmm0
.LVL30:
	vcvtpd2psx	%xmm2, %xmm2
	vcvtpd2psx	%xmm1, %xmm1
.LVL31:
	vmovss	%xmm0, -44(%rsp)
	vmovss	%xmm2, -48(%rsp)
	.loc 2 88 0
	vmovq	-48(%rsp), %xmm0
.LVL32:
	leave
	.cfi_def_cfa 7, 8
.LVL33:
	ret
	.cfi_endproc
.LFE2210:
	.size	_ZN12FieldDataCPU8get_divsEv, .-_ZN12FieldDataCPU8get_divsEv
	.text
	.align 2
	.p2align 4,,15
	.globl	_ZN12FieldDataCPU8allocateEP10PlasmaData
	.type	_ZN12FieldDataCPU8allocateEP10PlasmaData, @function
_ZN12FieldDataCPU8allocateEP10PlasmaData:
.LFB2230:
	.file 3 "FieldDataCPU.cpp"
	.loc 3 57 0
	.cfi_startproc
.LVL34:
	pushq	%rbp
	.cfi_def_cfa_offset 16
	.cfi_offset 6, -16
	movq	%rsp, %rbp
	.cfi_def_cfa_register 6
	pushq	%rbx
	movq	%rdi, %rbx
	.cfi_offset 3, -24
.LBB1055:
	.loc 3 58 0
	movq	%rsi, 120(%rdi)
	.loc 3 59 0
	movq	(%rdi), %rax
	movl	440(%rsi), %edi
.LVL35:
	movl	448(%rsi), %ecx
.LBE1055:
	.loc 3 57 0
	andq	$-32, %rsp
.LBB1058:
	.loc 3 59 0
	movl	444(%rsi), %edx
	movl	456(%rsi), %r8d
	movl	%edi, %esi
.LVL36:
	movq	%rbx, %rdi
	call	*16(%rax)
.LVL37:
.LBB1056:
	.loc 3 61 0
	movq	120(%rbx), %rdx
	movl	456(%rdx), %r8d
	testl	%r8d, %r8d
	jle	.L24
	.loc 3 56 0
	movl	%r8d, %esi
	.loc 3 61 0
	movq	64(%rbx), %rdi
	.loc 3 56 0
	shrl	$2, %esi
	leal	0(,%rsi,4), %r10d
	leaq	32(%rdi), %rax
	testl	%r10d, %r10d
	je	.L29
	leaq	56(%rdx), %rcx
	cmpl	$6, %r8d
	leaq	24(%rdx), %r11
	seta	%r9b
	cmpq	%rcx, %rdi
	seta	%cl
	cmpq	%r11, %rax
	setb	%r11b
	orl	%r11d, %ecx
	leaq	104(%rdx), %r11
	andl	%ecx, %r9d
	leaq	136(%rdx), %rcx
	cmpq	%rcx, %rdi
	seta	%cl
	cmpq	%r11, %rax
	setb	%al
	orl	%eax, %ecx
	testb	%cl, %r9b
	je	.L29
.LBE1056:
.LBE1058:
	xorl	%eax, %eax
	xorl	%ecx, %ecx
.LVL38:
	.p2align 4,,10
	.p2align 3
.L26:
.LBB1059:
.LBB1057:
	.loc 3 62 0 discriminator 2
	vmovupd	24(%rdx,%rax), %xmm1
	addl	$1, %ecx
	vmovupd	104(%rdx,%rax), %xmm0
	vinsertf128	$0x1, 40(%rdx,%rax), %ymm1, %ymm1
	vinsertf128	$0x1, 120(%rdx,%rax), %ymm0, %ymm0
	vdivpd	%ymm0, %ymm1, %ymm0
	vmovupd	%xmm0, (%rdi,%rax)
	vextractf128	$0x1, %ymm0, 16(%rdi,%rax)
	addq	$32, %rax
	cmpl	%ecx, %esi
	ja	.L26
	.loc 3 62 0 is_stmt 0
	cmpl	%r10d, %r8d
	movl	%r10d, %eax
	je	.L24
.L25:
	.loc 3 56 0 is_stmt 1
	movslq	%eax, %rsi
	leaq	(%rdi,%rsi,8), %rcx
	jmp	.L28
.LVL39:
	.p2align 4,,10
	.p2align 3
.L33:
	movslq	%eax, %rsi
.LVL40:
.L28:
	.loc 3 62 0
	vmovsd	24(%rdx,%rsi,8), %xmm0
	.loc 3 61 0
	addl	$1, %eax
.LVL41:
	.loc 3 62 0
	vdivsd	104(%rdx,%rsi,8), %xmm0, %xmm0
	vmovsd	%xmm0, (%rcx)
	.loc 3 61 0
	addq	$8, %rcx
	cmpl	%eax, %r8d
	jg	.L33
.LVL42:
.L24:
.LBE1057:
	.loc 3 64 0
	movl	532(%rdx), %eax
	movl	%eax, 92(%rbx)
.LBE1059:
	.loc 3 67 0
	movq	-8(%rbp), %rbx
.LVL43:
	leave
	.cfi_remember_state
	.cfi_def_cfa 7, 8
	vzeroupper
	ret
.LVL44:
.L29:
	.cfi_restore_state
	.loc 3 61 0
	xorl	%eax, %eax
	jmp	.L25
	.cfi_endproc
.LFE2230:
	.size	_ZN12FieldDataCPU8allocateEP10PlasmaData, .-_ZN12FieldDataCPU8allocateEP10PlasmaData
	.align 2
	.p2align 4,,15
	.globl	_ZN12FieldDataCPU4getBEiiii
	.type	_ZN12FieldDataCPU4getBEiiii, @function
_ZN12FieldDataCPU4getBEiiii:
.LFB2237:
	.loc 3 231 0
	.cfi_startproc
.LVL45:
.LBB1060:
	.loc 3 234 0
	cmpl	$1, %r8d
.LBE1060:
	.loc 3 231 0
	pushq	%rbx
	.cfi_def_cfa_offset 16
	.cfi_offset 3, -16
.LBB1071:
	.loc 3 234 0
	je	.L37
	cmpl	$2, %r8d
	je	.L38
	.loc 3 246 0
	xorl	%eax, %eax
	.loc 3 234 0
	testl	%r8d, %r8d
	jne	.L35
.LVL46:
.LBB1061:
.LBB1062:
	.loc 3 135 0
	movl	80(%rdi), %r11d
	.loc 3 134 0
	movl	76(%rdi), %eax
	.loc 3 133 0
	movl	72(%rdi), %r8d
.LVL47:
	.loc 3 135 0
	leal	-1(%r11), %r10d
	.loc 3 134 0
	leal	-1(%rax), %ebx
	.loc 3 133 0
	leal	-1(%r8), %r9d
.LVL48:
	.loc 3 135 0
	andl	%r10d, %ecx
.LVL49:
	.loc 3 134 0
	andl	%ebx, %edx
.LVL50:
	.loc 3 135 0
	addl	%r11d, %ecx
	.loc 3 134 0
	addl	%eax, %edx
	.loc 3 133 0
	andl	%r9d, %esi
.LVL51:
	.loc 3 135 0
	andl	%r10d, %ecx
	.loc 3 134 0
	andl	%ebx, %edx
	.loc 3 133 0
	addl	%r8d, %esi
	.loc 3 139 0
	imull	%ecx, %eax
	.loc 3 133 0
	andl	%r9d, %esi
	.loc 3 139 0
	movslq	%esi, %rsi
	addl	%edx, %eax
	imull	%r8d, %eax
	cltq
	addq	%rsi, %rax
	movq	40(%rdi), %rsi
	leaq	(%rsi,%rax,8), %rax
.LVL52:
.L35:
.LBE1062:
.LBE1061:
.LBE1071:
	.loc 3 250 0
	popq	%rbx
	.cfi_remember_state
	.cfi_def_cfa_offset 8
	ret
.LVL53:
	.p2align 4,,10
	.p2align 3
.L38:
	.cfi_restore_state
.LBB1072:
.LBB1063:
.LBB1064:
	.loc 3 135 0
	movl	80(%rdi), %r11d
	.loc 3 134 0
	movl	76(%rdi), %eax
	.loc 3 133 0
	movl	72(%rdi), %r8d
.LVL54:
	.loc 3 135 0
	leal	-1(%r11), %r10d
	.loc 3 134 0
	leal	-1(%rax), %ebx
	.loc 3 133 0
	leal	-1(%r8), %r9d
.LVL55:
	.loc 3 135 0
	andl	%r10d, %ecx
.LVL56:
	.loc 3 134 0
	andl	%ebx, %edx
.LVL57:
	.loc 3 135 0
	addl	%r11d, %ecx
	.loc 3 134 0
	addl	%eax, %edx
	.loc 3 133 0
	andl	%r9d, %esi
.LVL58:
	.loc 3 135 0
	andl	%r10d, %ecx
	.loc 3 134 0
	andl	%ebx, %edx
	.loc 3 133 0
	addl	%r8d, %esi
	.loc 3 147 0
	imull	%ecx, %eax
	.loc 3 133 0
	andl	%r9d, %esi
	.loc 3 147 0
	movslq	%esi, %rsi
.LBE1064:
.LBE1063:
.LBE1072:
	.loc 3 250 0
	popq	%rbx
	.cfi_remember_state
	.cfi_def_cfa_offset 8
.LVL59:
.LBB1073:
.LBB1066:
.LBB1065:
	.loc 3 147 0
	addl	%edx, %eax
	movq	56(%rdi), %rdx
.LVL60:
	imull	%r8d, %eax
	cltq
	addq	%rsi, %rax
	leaq	(%rdx,%rax,8), %rax
.LVL61:
.LBE1065:
.LBE1066:
.LBE1073:
	.loc 3 250 0
	ret
.LVL62:
	.p2align 4,,10
	.p2align 3
.L37:
	.cfi_restore_state
.LBB1074:
.LBB1067:
.LBB1068:
	.loc 3 135 0
	movl	80(%rdi), %r11d
	.loc 3 134 0
	movl	76(%rdi), %eax
	.loc 3 133 0
	movl	72(%rdi), %r8d
.LVL63:
	.loc 3 135 0
	leal	-1(%r11), %r10d
	.loc 3 134 0
	leal	-1(%rax), %ebx
	.loc 3 133 0
	leal	-1(%r8), %r9d
.LVL64:
	.loc 3 135 0
	andl	%r10d, %ecx
.LVL65:
	.loc 3 134 0
	andl	%ebx, %edx
.LVL66:
	.loc 3 135 0
	addl	%r11d, %ecx
	.loc 3 134 0
	addl	%eax, %edx
	.loc 3 133 0
	andl	%r9d, %esi
.LVL67:
	.loc 3 135 0
	andl	%r10d, %ecx
.LVL68:
	.loc 3 134 0
	andl	%ebx, %edx
.LVL69:
	.loc 3 133 0
	addl	%r8d, %esi
	.loc 3 143 0
	imull	%ecx, %eax
	.loc 3 133 0
	andl	%r9d, %esi
	.loc 3 143 0
	movq	48(%rdi), %rcx
.LVL70:
	movslq	%esi, %rsi
.LBE1068:
.LBE1067:
.LBE1074:
	.loc 3 250 0
	popq	%rbx
	.cfi_def_cfa_offset 8
.LBB1075:
.LBB1070:
.LBB1069:
	.loc 3 143 0
	addl	%edx, %eax
	imull	%r8d, %eax
	cltq
	addq	%rsi, %rax
	leaq	(%rcx,%rax,8), %rax
.LVL71:
.LBE1069:
.LBE1070:
.LBE1075:
	.loc 3 250 0
	ret
	.cfi_endproc
.LFE2237:
	.size	_ZN12FieldDataCPU4getBEiiii, .-_ZN12FieldDataCPU4getBEiiii
	.align 2
	.p2align 4,,15
	.globl	_ZN12FieldDataCPU15evaluate_energyEv
	.type	_ZN12FieldDataCPU15evaluate_energyEv, @function
_ZN12FieldDataCPU15evaluate_energyEv:
.LFB2243:
	.loc 3 763 0
	.cfi_startproc
.LVL72:
	pushq	%r13
	.cfi_def_cfa_offset 16
	.cfi_offset 13, -16
.LBB1076:
.LBB1077:
	.loc 3 767 0
	vxorpd	%xmm0, %xmm0, %xmm0
.LBE1077:
.LBE1076:
	.loc 3 763 0
	pushq	%r12
	.cfi_def_cfa_offset 24
	.cfi_offset 12, -24
	pushq	%rbp
	.cfi_def_cfa_offset 32
	.cfi_offset 6, -32
	pushq	%rbx
	.cfi_def_cfa_offset 40
	.cfi_offset 3, -40
	movq	%rdi, %rbx
	subq	$56, %rsp
	.cfi_def_cfa_offset 96
.LBB1082:
.LBB1081:
	.loc 3 769 0
	movl	80(%rdi), %eax
	.loc 3 767 0
	vmovsd	%xmm0, 40(%rsp)
	.loc 3 769 0
	testl	%eax, %eax
	jle	.L42
	movl	76(%rdi), %edx
	xorl	%r13d, %r13d
.LVL73:
.L43:
.LBB1078:
	.loc 3 771 0 discriminator 1
	testl	%edx, %edx
	jle	.L47
	.loc 3 771 0 is_stmt 0
	movl	72(%rbx), %eax
	xorl	%r12d, %r12d
.LVL74:
	.p2align 4,,10
	.p2align 3
.L48:
.LBB1079:
	.loc 3 773 0 is_stmt 1 discriminator 1
	xorl	%ebp, %ebp
	testl	%eax, %eax
	jle	.L46
.LVL75:
	.p2align 4,,10
	.p2align 3
.L51:
	.loc 3 775 0 discriminator 2
	movq	(%rbx), %rax
	xorl	%r8d, %r8d
	movl	%r13d, %ecx
	movl	%r12d, %edx
	movl	%ebp, %esi
	movq	%rbx, %rdi
	call	*64(%rax)
.LVL76:
	vmovsd	(%rax), %xmm0
.LVL77:
	.loc 3 776 0 discriminator 2
	movq	(%rbx), %rax
.LVL78:
	movl	$1, %r8d
	movl	%r13d, %ecx
	movl	%r12d, %edx
	movl	%ebp, %esi
	movq	%rbx, %rdi
	vmovsd	%xmm0, (%rsp)
	call	*64(%rax)
.LVL79:
	.loc 3 777 0 discriminator 2
	movq	(%rbx), %rax
	movl	$2, %r8d
	movl	%r13d, %ecx
	movl	%r12d, %edx
	movl	%ebp, %esi
	movq	%rbx, %rdi
	call	*64(%rax)
.LVL80:
	.loc 3 779 0 discriminator 2
	vmovsd	(%rsp), %xmm0
	.loc 3 781 0 discriminator 2
	movq	(%rbx), %rax
	.loc 3 779 0 discriminator 2
	vxorpd	%xmm1, %xmm1, %xmm1
	.loc 3 781 0 discriminator 2
	xorl	%r8d, %r8d
	.loc 3 779 0 discriminator 2
	vmulsd	%xmm0, %xmm0, %xmm0
	.loc 3 781 0 discriminator 2
	movl	%r13d, %ecx
	movl	%r12d, %edx
	movl	%ebp, %esi
	movq	%rbx, %rdi
	.loc 3 779 0 discriminator 2
	vaddsd	%xmm1, %xmm0, %xmm0
	vaddsd	%xmm1, %xmm0, %xmm0
	vaddsd	40(%rsp), %xmm0, %xmm0
	vmovsd	%xmm0, 40(%rsp)
.LVL81:
	.loc 3 781 0 discriminator 2
	call	*72(%rax)
.LVL82:
	.loc 3 782 0 discriminator 2
	movq	(%rbx), %rax
	movl	$1, %r8d
	movl	%r13d, %ecx
	movl	%r12d, %edx
	movl	%ebp, %esi
	movq	%rbx, %rdi
	call	*72(%rax)
.LVL83:
	.loc 3 783 0 discriminator 2
	movq	(%rbx), %rax
	movl	$2, %r8d
	movl	%r13d, %ecx
	movl	%r12d, %edx
	movl	%ebp, %esi
	movq	%rbx, %rdi
	call	*72(%rax)
.LVL84:
	.loc 3 773 0 discriminator 2
	movl	72(%rbx), %eax
	addl	$1, %ebp
.LVL85:
	cmpl	%ebp, %eax
	jg	.L51
	.loc 3 773 0 is_stmt 0
	movl	76(%rbx), %edx
.LVL86:
.L46:
.LBE1079:
	.loc 3 771 0 is_stmt 1
	addl	$1, %r12d
.LVL87:
	cmpl	%edx, %r12d
	jl	.L48
.LBB1080:
	.loc 3 773 0
	movl	80(%rbx), %eax
.LVL88:
.L47:
.LBE1080:
.LBE1078:
	.loc 3 769 0
	addl	$1, %r13d
.LVL89:
	cmpl	%eax, %r13d
	jl	.L43
.LVL90:
.L42:
.LBE1081:
	.loc 3 791 0
	movq	epsilon_naught@GOTPCREL(%rip), %rdx
	vmovsd	40(%rsp), %xmm1
	movq	120(%rbx), %rax
.LVL91:
	vdivsd	(%rdx), %xmm1, %xmm0
	vmulsd	.LC2(%rip), %xmm0, %xmm0
	vmulsd	280(%rax), %xmm0, %xmm0
	vmulsd	288(%rax), %xmm0, %xmm0
	vmulsd	296(%rax), %xmm0, %xmm0
.LBE1082:
	.loc 3 796 0
	addq	$56, %rsp
	.cfi_def_cfa_offset 40
	popq	%rbx
	.cfi_def_cfa_offset 32
.LVL92:
	popq	%rbp
	.cfi_def_cfa_offset 24
	popq	%r12
	.cfi_def_cfa_offset 16
	popq	%r13
	.cfi_def_cfa_offset 8
	ret
	.cfi_endproc
.LFE2243:
	.size	_ZN12FieldDataCPU15evaluate_energyEv, .-_ZN12FieldDataCPU15evaluate_energyEv
	.align 2
	.p2align 4,,15
	.globl	_ZN12FieldDataCPU4getEEiiii
	.type	_ZN12FieldDataCPU4getEEiiii, @function
_ZN12FieldDataCPU4getEEiiii:
.LFB2236:
	.loc 3 209 0
	.cfi_startproc
.LVL93:
.LBB1091:
	.loc 3 212 0
	cmpl	$1, %r8d
.LBE1091:
	.loc 3 209 0
	pushq	%rbx
	.cfi_def_cfa_offset 16
	.cfi_offset 3, -16
.LBB1102:
	.loc 3 212 0
	je	.L56
	cmpl	$2, %r8d
	je	.L57
	.loc 3 224 0
	xorl	%eax, %eax
	.loc 3 212 0
	testl	%r8d, %r8d
	jne	.L54
.LVL94:
.LBB1092:
.LBB1093:
	.loc 3 109 0
	movl	80(%rdi), %r11d
	.loc 3 108 0
	movl	76(%rdi), %eax
	.loc 3 107 0
	movl	72(%rdi), %r8d
.LVL95:
	.loc 3 109 0
	leal	-1(%r11), %r10d
	.loc 3 108 0
	leal	-1(%rax), %ebx
	.loc 3 107 0
	leal	-1(%r8), %r9d
.LVL96:
	.loc 3 109 0
	andl	%r10d, %ecx
.LVL97:
	.loc 3 108 0
	andl	%ebx, %edx
.LVL98:
	.loc 3 109 0
	addl	%r11d, %ecx
	.loc 3 108 0
	addl	%eax, %edx
	.loc 3 107 0
	andl	%r9d, %esi
.LVL99:
	.loc 3 109 0
	andl	%r10d, %ecx
	.loc 3 108 0
	andl	%ebx, %edx
	.loc 3 107 0
	addl	%r8d, %esi
	.loc 3 113 0
	imull	%ecx, %eax
	.loc 3 107 0
	andl	%r9d, %esi
	.loc 3 113 0
	movq	16(%rdi), %r10
.LVL100:
	movslq	%esi, %rsi
	addl	%edx, %eax
	imull	%r8d, %eax
	cltq
	addq	%rsi, %rax
	leaq	(%r10,%rax,8), %rax
.LVL101:
.L54:
.LBE1093:
.LBE1092:
.LBE1102:
	.loc 3 228 0
	popq	%rbx
	.cfi_remember_state
	.cfi_def_cfa_offset 8
	ret
.LVL102:
	.p2align 4,,10
	.p2align 3
.L57:
	.cfi_restore_state
.LBB1103:
.LBB1094:
.LBB1095:
	.loc 3 109 0
	movl	80(%rdi), %r11d
	.loc 3 108 0
	movl	76(%rdi), %eax
	.loc 3 107 0
	movl	72(%rdi), %r8d
.LVL103:
	.loc 3 109 0
	leal	-1(%r11), %r10d
	.loc 3 108 0
	leal	-1(%rax), %ebx
	.loc 3 107 0
	leal	-1(%r8), %r9d
.LVL104:
	.loc 3 109 0
	andl	%r10d, %ecx
.LVL105:
	.loc 3 108 0
	andl	%ebx, %edx
.LVL106:
	.loc 3 109 0
	addl	%r11d, %ecx
	.loc 3 108 0
	addl	%eax, %edx
	.loc 3 107 0
	andl	%r9d, %esi
.LVL107:
	.loc 3 109 0
	andl	%r10d, %ecx
.LVL108:
	.loc 3 108 0
	andl	%ebx, %edx
.LVL109:
	.loc 3 107 0
	addl	%r8d, %esi
	.loc 3 122 0
	imull	%ecx, %eax
	.loc 3 107 0
	andl	%r9d, %esi
.LVL110:
	.loc 3 122 0
	movslq	%esi, %rsi
.LBE1095:
.LBE1094:
.LBE1103:
	.loc 3 228 0
	popq	%rbx
	.cfi_remember_state
	.cfi_def_cfa_offset 8
.LBB1104:
.LBB1097:
.LBB1096:
	.loc 3 122 0
	addl	%edx, %eax
	imull	%r8d, %eax
	movq	32(%rdi), %r8
	cltq
	addq	%rsi, %rax
	leaq	(%r8,%rax,8), %rax
.LVL111:
.LBE1096:
.LBE1097:
.LBE1104:
	.loc 3 228 0
	ret
.LVL112:
	.p2align 4,,10
	.p2align 3
.L56:
	.cfi_restore_state
.LBB1105:
.LBB1098:
.LBB1099:
	.loc 3 109 0
	movl	80(%rdi), %r11d
	.loc 3 108 0
	movl	76(%rdi), %eax
	.loc 3 107 0
	movl	72(%rdi), %r8d
.LVL113:
	.loc 3 109 0
	leal	-1(%r11), %r10d
	.loc 3 108 0
	leal	-1(%rax), %ebx
	.loc 3 107 0
	leal	-1(%r8), %r9d
.LVL114:
	.loc 3 109 0
	andl	%r10d, %ecx
.LVL115:
	.loc 3 108 0
	andl	%ebx, %edx
.LVL116:
	.loc 3 109 0
	addl	%r11d, %ecx
	.loc 3 108 0
	addl	%eax, %edx
	.loc 3 107 0
	andl	%r9d, %esi
.LVL117:
	.loc 3 109 0
	andl	%r10d, %ecx
	.loc 3 108 0
	andl	%ebx, %edx
	.loc 3 107 0
	addl	%r8d, %esi
	.loc 3 117 0
	imull	%ecx, %eax
	.loc 3 107 0
	andl	%r9d, %esi
	.loc 3 117 0
	movq	24(%rdi), %r9
.LVL118:
	movslq	%esi, %rsi
.LBE1099:
.LBE1098:
.LBE1105:
	.loc 3 228 0
	popq	%rbx
	.cfi_def_cfa_offset 8
.LVL119:
.LBB1106:
.LBB1101:
.LBB1100:
	.loc 3 117 0
	addl	%edx, %eax
	imull	%r8d, %eax
	cltq
	addq	%rsi, %rax
	leaq	(%r9,%rax,8), %rax
.LVL120:
.LBE1100:
.LBE1101:
.LBE1106:
	.loc 3 228 0
	ret
	.cfi_endproc
.LFE2236:
	.size	_ZN12FieldDataCPU4getEEiiii, .-_ZN12FieldDataCPU4getEEiiii
	.section	.text._ZN12FieldDataCPUD0Ev,"axG",@progbits,_ZN12FieldDataCPUD5Ev,comdat
	.align 2
	.p2align 4,,15
	.weak	_ZN12FieldDataCPUD0Ev
	.type	_ZN12FieldDataCPUD0Ev, @function
_ZN12FieldDataCPUD0Ev:
.LFB2207:
	.loc 2 16 0
	.cfi_startproc
.LVL121:
.LBB1107:
.LBB1108:
.LBB1109:
.LBB1110:
.LBB1111:
.LBB1112:
	.loc 1 29 0
	movq	_ZTV9FieldData@GOTPCREL(%rip), %rax
	addq	$16, %rax
	movq	%rax, (%rdi)
.LBE1112:
.LBE1111:
.LBE1110:
.LBE1109:
.LBE1108:
.LBE1107:
	.loc 2 19 0
	jmp	_ZdlPv@PLT
.LVL122:
	.cfi_endproc
.LFE2207:
	.size	_ZN12FieldDataCPUD0Ev, .-_ZN12FieldDataCPUD0Ev
	.section	.text._ZN9FieldDataD0Ev,"axG",@progbits,_ZN9FieldDataD5Ev,comdat
	.align 2
	.p2align 4,,15
	.weak	_ZN9FieldDataD0Ev
	.type	_ZN9FieldDataD0Ev, @function
_ZN9FieldDataD0Ev:
.LFB2188:
	.loc 1 29 0
	.cfi_startproc
.LVL123:
.LBB1113:
.LBB1114:
.LBB1115:
	.loc 1 29 0
	movq	_ZTV9FieldData@GOTPCREL(%rip), %rax
	addq	$16, %rax
	movq	%rax, (%rdi)
.LBE1115:
.LBE1114:
.LBE1113:
	jmp	_ZdlPv@PLT
.LVL124:
	.cfi_endproc
.LFE2188:
	.size	_ZN9FieldDataD0Ev, .-_ZN9FieldDataD0Ev
	.text
	.align 2
	.p2align 4,,15
	.globl	_ZN12FieldDataCPU8allocateEiiii
	.type	_ZN12FieldDataCPU8allocateEiiii, @function
_ZN12FieldDataCPU8allocateEiiii:
.LFB2229:
	.loc 3 34 0
	.cfi_startproc
.LVL125:
	pushq	%r12
	.cfi_def_cfa_offset 16
	.cfi_offset 12, -16
	movl	%r8d, %r12d
	pushq	%rbp
	.cfi_def_cfa_offset 24
	.cfi_offset 6, -24
	pushq	%rbx
	.cfi_def_cfa_offset 32
	.cfi_offset 3, -32
	.loc 3 35 0
	movl	%esi, 72(%rdi)
	.loc 3 34 0
	movq	%rdi, %rbx
	.loc 3 42 0
	imull	%edx, %esi
.LVL126:
	.loc 3 37 0
	movl	%ecx, 80(%rdi)
	.loc 3 36 0
	movl	%edx, 76(%rdi)
	.loc 3 38 0
	movl	%r8d, 84(%rbx)
	.loc 3 42 0
	imull	%esi, %ecx
.LVL127:
	movl	%ecx, 88(%rdi)
	.loc 3 44 0
	movslq	%ecx, %rcx
	leaq	0(,%rcx,8), %rbp
	movq	%rbp, %rdi
.LVL128:
	call	malloc@PLT
.LVL129:
	.loc 3 45 0
	movq	%rbp, %rdi
	.loc 3 44 0
	movq	%rax, 16(%rbx)
	.loc 3 45 0
	call	malloc@PLT
.LVL130:
	.loc 3 46 0
	movq	%rbp, %rdi
	.loc 3 45 0
	movq	%rax, 24(%rbx)
	.loc 3 46 0
	call	malloc@PLT
.LVL131:
	.loc 3 48 0
	movq	%rbp, %rdi
	.loc 3 46 0
	movq	%rax, 32(%rbx)
	.loc 3 48 0
	call	malloc@PLT
.LVL132:
	.loc 3 49 0
	movq	%rbp, %rdi
	.loc 3 48 0
	movq	%rax, 40(%rbx)
	.loc 3 49 0
	call	malloc@PLT
.LVL133:
	.loc 3 50 0
	movq	%rbp, %rdi
	.loc 3 49 0
	movq	%rax, 48(%rbx)
	.loc 3 52 0
	movslq	%r12d, %r12
	.loc 3 50 0
	call	malloc@PLT
.LVL134:
	.loc 3 52 0
	leaq	0(,%r12,8), %rdi
	.loc 3 50 0
	movq	%rax, 56(%rbx)
	.loc 3 52 0
	call	malloc@PLT
.LVL135:
	movq	%rax, 64(%rbx)
	.loc 3 53 0
	popq	%rbx
	.cfi_def_cfa_offset 24
.LVL136:
	popq	%rbp
	.cfi_def_cfa_offset 16
	popq	%r12
	.cfi_def_cfa_offset 8
.LVL137:
	ret
	.cfi_endproc
.LFE2229:
	.size	_ZN12FieldDataCPU8allocateEiiii, .-_ZN12FieldDataCPU8allocateEiiii
	.section	.rodata.str1.1,"aMS",@progbits,1
.LC3:
	.string	"set xlabel \"x\""
.LC4:
	.string	"set ylabel \"y\""
.LC5:
	.string	"set ylabel \"z\""
.LC6:
	.string	"set xlabel \"y\""
.LC7:
	.string	"Fields"
	.text
	.align 2
	.p2align 4,,15
	.globl	_ZN12FieldDataCPU4plotEP10PlasmaDataiiii
	.type	_ZN12FieldDataCPU4plotEP10PlasmaDataiiii, @function
_ZN12FieldDataCPU4plotEP10PlasmaDataiiii:
.LFB2249:
	.loc 3 922 0
	.cfi_startproc
.LVL138:
	pushq	%r15
	.cfi_def_cfa_offset 16
	.cfi_offset 15, -16
	pushq	%r14
	.cfi_def_cfa_offset 24
	.cfi_offset 14, -24
	pushq	%r13
	.cfi_def_cfa_offset 32
	.cfi_offset 13, -32
	pushq	%r12
	.cfi_def_cfa_offset 40
	.cfi_offset 12, -40
	movl	%r9d, %r12d
	pushq	%rbp
	.cfi_def_cfa_offset 48
	.cfi_offset 6, -48
	pushq	%rbx
	.cfi_def_cfa_offset 56
	.cfi_offset 3, -56
	movq	%rdi, %rbx
	subq	$104, %rsp
	.cfi_def_cfa_offset 160
.LBB1118:
	.loc 3 946 0
	testl	%ecx, %ecx
.LBE1118:
	.loc 3 922 0
	movq	%rsi, 48(%rsp)
	movl	%edx, 56(%rsp)
	movl	%r8d, 24(%rsp)
.LBB1119:
	.loc 3 946 0
	je	.L109
	.loc 3 963 0
	cmpl	$1, %ecx
	je	.L110
	.loc 3 980 0
	cmpl	$2, %ecx
	je	.L111
.LVL139:
	.loc 3 1001 0
	xorl	%ebp, %ebp
	movl	$0, 88(%rsp)
	movl	$0, 92(%rsp)
	movq	%rbp, %rdi
.LVL140:
	call	malloc@PLT
.LVL141:
	.loc 3 1002 0
	movq	%rbp, %rdi
	.loc 3 1001 0
	movq	%rax, %r13
.LVL142:
	.loc 3 1002 0
	call	malloc@PLT
.LVL143:
	.loc 3 1003 0
	movq	%rbp, %rdi
	.loc 3 1002 0
	movq	%rax, %r15
.LVL144:
	.loc 3 1003 0
	call	malloc@PLT
.LVL145:
	movq	%rax, 80(%rsp)
.LVL146:
.L71:
	.loc 3 1089 0
	movq	8(%rbx), %rdi
	movl	92(%rsp), %r9d
	leaq	.LC7(%rip), %rax
	movl	88(%rsp), %r8d
	movq	80(%rsp), %rcx
	movq	%r15, %rdx
	movq	%r13, %rsi
	movq	%rax, (%rsp)
	call	_Z16gnuplot_plot_xyzP14_GNUPLOT_CTRL_PfS1_S1_iiPc@PLT
.LVL147:
	.loc 3 1092 0
	movq	%r13, %rdi
	call	free@PLT
.LVL148:
	.loc 3 1093 0
	movq	%r15, %rdi
	call	free@PLT
.LVL149:
	.loc 3 1094 0
	movq	80(%rsp), %rdi
.LBE1119:
	.loc 3 1105 0
	addq	$104, %rsp
	.cfi_remember_state
	.cfi_def_cfa_offset 56
	popq	%rbx
	.cfi_def_cfa_offset 48
.LVL150:
	popq	%rbp
	.cfi_def_cfa_offset 40
	popq	%r12
	.cfi_def_cfa_offset 32
.LVL151:
	popq	%r13
	.cfi_def_cfa_offset 24
.LVL152:
	popq	%r14
	.cfi_def_cfa_offset 16
	popq	%r15
	.cfi_def_cfa_offset 8
.LVL153:
.LBB1120:
	.loc 3 1094 0
	jmp	free@PLT
.LVL154:
.L109:
	.cfi_restore_state
	.loc 3 951 0
	vmovsd	280(%rsi), %xmm0
	.loc 3 948 0
	movl	440(%rsi), %eax
	.loc 3 949 0
	movl	444(%rsi), %edx
	.loc 3 960 0
	movq	8(%rdi), %rdi
	.loc 3 951 0
	vcvtpd2psx	%xmm0, %xmm0
	.loc 3 948 0
	movl	%eax, 88(%rsp)
.LVL155:
	.loc 3 960 0
	xorl	%eax, %eax
	.loc 3 949 0
	movl	%edx, 92(%rsp)
.LVL156:
	.loc 3 951 0
	vmovss	%xmm0, 28(%rsp)
.LVL157:
	.loc 3 952 0
	vmovsd	288(%rsi), %xmm0
.LVL158:
	vcvtpd2psx	%xmm0, %xmm0
	vmovss	%xmm0, 72(%rsp)
.LVL159:
	.loc 3 954 0
	vmovsd	328(%rsi), %xmm0
.LVL160:
	vcvtpd2psx	%xmm0, %xmm0
	vmovss	%xmm0, 32(%rsp)
.LVL161:
	.loc 3 955 0
	vmovsd	336(%rsi), %xmm0
.LVL162:
	.loc 3 960 0
	leaq	.LC3(%rip), %rsi
	.loc 3 955 0
	vcvtpd2psx	%xmm0, %xmm0
	vmovss	%xmm0, 76(%rsp)
.LVL163:
	.loc 3 960 0
	call	_Z11gnuplot_cmdP14_GNUPLOT_CTRL_Pcz@PLT
.LVL164:
	.loc 3 961 0
	movq	8(%rbx), %rdi
	leaq	.LC4(%rip), %rsi
	xorl	%eax, %eax
	call	_Z11gnuplot_cmdP14_GNUPLOT_CTRL_Pcz@PLT
.LVL165:
	.loc 3 1001 0
	movl	88(%rsp), %ebp
	imull	92(%rsp), %ebp
	movslq	%ebp, %rbp
	salq	$2, %rbp
	movq	%rbp, %rdi
	call	malloc@PLT
.LVL166:
	.loc 3 1002 0
	movq	%rbp, %rdi
	.loc 3 1001 0
	movq	%rax, %r13
.LVL167:
	.loc 3 1002 0
	call	malloc@PLT
.LVL168:
	.loc 3 1003 0
	movq	%rbp, %rdi
	.loc 3 1002 0
	movq	%rax, %r15
.LVL169:
	.loc 3 1003 0
	call	malloc@PLT
.LVL170:
	.loc 3 1009 0
	movq	48(%rsp), %rsi
	.loc 3 1003 0
	movq	%rax, 80(%rsp)
.LVL171:
	.loc 3 1009 0
	movl	444(%rsi), %eax
.LVL172:
	testl	%eax, %eax
	jle	.L71
	.loc 3 920 0
	movslq	88(%rsp), %rcx
	.loc 3 1065 0
	movl	440(%rsi), %edx
.LBE1120:
	.loc 3 920 0
	xorl	%r14d, %r14d
.LBB1121:
	salq	$2, %rcx
	movq	%rcx, 64(%rsp)
	movq	80(%rsp), %rcx
	movq	%rcx, 40(%rsp)
.LVL173:
	.p2align 4,,10
	.p2align 3
.L83:
	.loc 3 1011 0
	testl	%edx, %edx
	.loc 3 920 0
	movl	%r14d, 36(%rsp)
.LVL174:
	.loc 3 1011 0
	jle	.L76
	vcvtsi2ss	%r14d, %xmm0, %xmm0
	xorl	%ebp, %ebp
	vmulss	72(%rsp), %xmm0, %xmm0
	vaddss	76(%rsp), %xmm0, %xmm0
	vmovss	%xmm0, 20(%rsp)
	jmp	.L82
.LVL175:
	.p2align 4,,10
	.p2align 3
.L115:
	.loc 3 1017 0
	cmpl	$2, %r12d
	jle	.L112
	.loc 3 1019 0
	cmpl	$3, %r12d
	je	.L113
.L79:
	.loc 3 920 0
	leal	1(%rbp), %eax
.LVL176:
	addq	$1, %rbp
	.loc 3 1011 0
	cmpl	%edx, %eax
	jge	.L114
.LVL177:
.L82:
	.loc 3 1013 0
	vcvtsi2ss	%ebp, %xmm0, %xmm0
	.loc 3 1015 0
	movl	24(%rsp), %eax
	testl	%eax, %eax
	.loc 3 1013 0
	vmulss	28(%rsp), %xmm0, %xmm0
	vaddss	32(%rsp), %xmm0, %xmm0
	vmovss	%xmm0, 0(%r13,%rbp,4)
	.loc 3 1014 0
	vmovss	20(%rsp), %xmm0
	vmovss	%xmm0, (%r15,%r14,4)
	.loc 3 1015 0
	je	.L115
	.loc 3 1027 0
	movq	(%rbx), %rax
	movl	56(%rsp), %ecx
	movl	%r12d, %r8d
	movl	36(%rsp), %edx
	movl	%ebp, %esi
	movq	%rbx, %rdi
	call	*72(%rax)
.LVL178:
.L106:
	vmovsd	(%rax), %xmm0
	movq	40(%rsp), %rdx
	movq	48(%rsp), %rsi
	.loc 3 920 0
	leal	1(%rbp), %eax
.LVL179:
	.loc 3 1027 0
	vcvtpd2psx	%xmm0, %xmm0
	vmovss	%xmm0, (%rdx,%rbp,4)
	movl	440(%rsi), %edx
	.loc 3 920 0
	addq	$1, %rbp
	.loc 3 1011 0
	cmpl	%edx, %eax
	jl	.L82
.L114:
	movq	48(%rsp), %rsi
	movl	444(%rsi), %eax
.LVL180:
.L76:
	.loc 3 920 0
	leal	1(%r14), %ecx
.LVL181:
	movq	64(%rsp), %rsi
	addq	$1, %r14
	addq	%rsi, 40(%rsp)
	.loc 3 1009 0
	cmpl	%eax, %ecx
	jl	.L83
	jmp	.L71
.LVL182:
	.p2align 4,,10
	.p2align 3
.L112:
	.loc 3 1018 0
	movq	(%rbx), %rax
	movl	56(%rsp), %ecx
	xorl	%r8d, %r8d
	movl	36(%rsp), %edx
	movl	%ebp, %esi
	movq	%rbx, %rdi
	call	*64(%rax)
.LVL183:
	jmp	.L106
	.p2align 4,,10
	.p2align 3
.L113:
	.loc 3 1021 0
	movq	(%rbx), %rax
	movl	56(%rsp), %ecx
	xorl	%r8d, %r8d
	movl	36(%rsp), %edx
	movl	%ebp, %esi
	movq	%rbx, %rdi
	call	*64(%rax)
.LVL184:
	vmovsd	(%rax), %xmm0
	.loc 3 1022 0
	movl	56(%rsp), %ecx
	movq	(%rbx), %rax
	movl	36(%rsp), %edx
	movl	$1, %r8d
	movl	%ebp, %esi
	.loc 3 1021 0
	vcvtpd2psx	%xmm0, %xmm0
	.loc 3 1022 0
	movq	%rbx, %rdi
	.loc 3 1021 0
	vmulss	%xmm0, %xmm0, %xmm0
	vmovss	%xmm0, 60(%rsp)
	.loc 3 1022 0
	call	*64(%rax)
.LVL185:
	vmovsd	(%rax), %xmm0
	.loc 3 1023 0
	movl	56(%rsp), %ecx
	movl	$2, %r8d
	movq	(%rbx), %rax
	movl	36(%rsp), %edx
	movl	%ebp, %esi
	.loc 3 1022 0
	vcvtpd2psx	%xmm0, %xmm0
	.loc 3 1023 0
	movq	%rbx, %rdi
	.loc 3 1022 0
	vmulss	%xmm0, %xmm0, %xmm0
	.loc 3 1023 0
	vaddss	60(%rsp), %xmm0, %xmm0
	vmovss	%xmm0, 60(%rsp)
	call	*64(%rax)
.LVL186:
	vmovsd	(%rax), %xmm0
	vcvtpd2psx	%xmm0, %xmm0
	vmulss	%xmm0, %xmm0, %xmm0
	vaddss	60(%rsp), %xmm0, %xmm0
	vsqrtss	%xmm0, %xmm1, %xmm1
	vucomiss	%xmm1, %xmm1
	jp	.L116
.L80:
	movq	40(%rsp), %rax
	movq	48(%rsp), %rsi
	vmovss	%xmm1, (%rax,%rbp,4)
	movl	440(%rsi), %edx
	jmp	.L79
.LVL187:
.L110:
	.loc 3 965 0
	movq	48(%rsp), %rsi
	.loc 3 977 0
	movq	8(%rdi), %rdi
	xorl	%eax, %eax
	.loc 3 965 0
	movl	440(%rsi), %esi
	movl	%esi, 88(%rsp)
.LVL188:
	.loc 3 966 0
	movq	48(%rsp), %rsi
	movl	448(%rsi), %esi
	movl	%esi, 92(%rsp)
.LVL189:
	.loc 3 968 0
	movq	48(%rsp), %rsi
	vmovsd	280(%rsi), %xmm0
	vcvtpd2psx	%xmm0, %xmm0
	vmovss	%xmm0, 28(%rsp)
.LVL190:
	.loc 3 969 0
	vmovsd	296(%rsi), %xmm0
.LVL191:
	vcvtpd2psx	%xmm0, %xmm0
	vmovss	%xmm0, 72(%rsp)
.LVL192:
	.loc 3 971 0
	vmovsd	328(%rsi), %xmm0
.LVL193:
	vcvtpd2psx	%xmm0, %xmm0
	vmovss	%xmm0, 32(%rsp)
.LVL194:
	.loc 3 972 0
	vmovsd	344(%rsi), %xmm0
.LVL195:
	.loc 3 977 0
	leaq	.LC3(%rip), %rsi
	.loc 3 972 0
	vcvtpd2psx	%xmm0, %xmm0
	vmovss	%xmm0, 76(%rsp)
.LVL196:
	.loc 3 977 0
	call	_Z11gnuplot_cmdP14_GNUPLOT_CTRL_Pcz@PLT
.LVL197:
	.loc 3 978 0
	movq	8(%rbx), %rdi
	leaq	.LC5(%rip), %rsi
	xorl	%eax, %eax
	call	_Z11gnuplot_cmdP14_GNUPLOT_CTRL_Pcz@PLT
.LVL198:
	.loc 3 1001 0
	movl	88(%rsp), %ebp
	imull	92(%rsp), %ebp
	movslq	%ebp, %rbp
	salq	$2, %rbp
	movq	%rbp, %rdi
	call	malloc@PLT
.LVL199:
	.loc 3 1002 0
	movq	%rbp, %rdi
	.loc 3 1001 0
	movq	%rax, %r13
.LVL200:
	.loc 3 1002 0
	call	malloc@PLT
.LVL201:
	.loc 3 1003 0
	movq	%rbp, %rdi
	.loc 3 1002 0
	movq	%rax, %r15
.LVL202:
	.loc 3 1003 0
	call	malloc@PLT
.LVL203:
	.loc 3 1037 0
	movq	48(%rsp), %rsi
	.loc 3 1003 0
	movq	%rax, 80(%rsp)
.LVL204:
	.loc 3 1037 0
	movl	448(%rsi), %eax
.LVL205:
	testl	%eax, %eax
	jle	.L71
	.loc 3 920 0
	movslq	88(%rsp), %rcx
	.loc 3 1009 0
	movl	440(%rsi), %edx
	.loc 3 920 0
	xorl	%r14d, %r14d
	salq	$2, %rcx
	movq	%rcx, 64(%rsp)
	movq	80(%rsp), %rcx
	movq	%rcx, 40(%rsp)
.LVL206:
	.p2align 4,,10
	.p2align 3
.L91:
	.loc 3 1039 0
	testl	%edx, %edx
	.loc 3 920 0
	movl	%r14d, 36(%rsp)
.LVL207:
	.loc 3 1039 0
	jle	.L84
	vcvtsi2ss	%r14d, %xmm0, %xmm0
	xorl	%ebp, %ebp
	vmulss	72(%rsp), %xmm0, %xmm0
	vaddss	76(%rsp), %xmm0, %xmm0
	vmovss	%xmm0, 20(%rsp)
	jmp	.L90
.LVL208:
	.p2align 4,,10
	.p2align 3
.L120:
	.loc 3 1045 0
	cmpl	$2, %r12d
	jle	.L117
	.loc 3 1047 0
	cmpl	$3, %r12d
	je	.L118
.L87:
	.loc 3 920 0
	leal	1(%rbp), %eax
.LVL209:
	addq	$1, %rbp
	.loc 3 1039 0
	cmpl	%edx, %eax
	jge	.L119
.LVL210:
.L90:
	.loc 3 1041 0
	vcvtsi2ss	%ebp, %xmm0, %xmm0
	.loc 3 1043 0
	movl	24(%rsp), %eax
	testl	%eax, %eax
	.loc 3 1041 0
	vmulss	28(%rsp), %xmm0, %xmm0
	vaddss	32(%rsp), %xmm0, %xmm0
	vmovss	%xmm0, 0(%r13,%rbp,4)
	.loc 3 1042 0
	vmovss	20(%rsp), %xmm0
	vmovss	%xmm0, (%r15,%r14,4)
	.loc 3 1043 0
	je	.L120
	.loc 3 1055 0
	movq	(%rbx), %rax
	movl	36(%rsp), %ecx
	movl	%r12d, %r8d
	movl	56(%rsp), %edx
	movl	%ebp, %esi
	movq	%rbx, %rdi
	call	*72(%rax)
.LVL211:
.L107:
	vmovsd	(%rax), %xmm0
	movq	40(%rsp), %rdx
	movq	48(%rsp), %rsi
	.loc 3 920 0
	leal	1(%rbp), %eax
.LVL212:
	.loc 3 1055 0
	vcvtpd2psx	%xmm0, %xmm0
	vmovss	%xmm0, (%rdx,%rbp,4)
	movl	440(%rsi), %edx
	.loc 3 920 0
	addq	$1, %rbp
	.loc 3 1039 0
	cmpl	%edx, %eax
	jl	.L90
.L119:
	movq	48(%rsp), %rsi
	movl	448(%rsi), %eax
.LVL213:
.L84:
	.loc 3 920 0
	leal	1(%r14), %ecx
.LVL214:
	movq	64(%rsp), %rsi
	addq	$1, %r14
	addq	%rsi, 40(%rsp)
	.loc 3 1037 0
	cmpl	%eax, %ecx
	jl	.L91
	jmp	.L71
.LVL215:
	.p2align 4,,10
	.p2align 3
.L117:
	.loc 3 1046 0
	movq	(%rbx), %rax
	movl	36(%rsp), %ecx
	xorl	%r8d, %r8d
	movl	56(%rsp), %edx
	movl	%ebp, %esi
	movq	%rbx, %rdi
	call	*64(%rax)
.LVL216:
	jmp	.L107
	.p2align 4,,10
	.p2align 3
.L118:
	.loc 3 1049 0
	movq	(%rbx), %rax
	movl	36(%rsp), %ecx
	xorl	%r8d, %r8d
	movl	56(%rsp), %edx
	movl	%ebp, %esi
	movq	%rbx, %rdi
	call	*64(%rax)
.LVL217:
	vmovsd	(%rax), %xmm0
	.loc 3 1050 0
	movl	36(%rsp), %ecx
	movq	(%rbx), %rax
	movl	56(%rsp), %edx
	movl	$1, %r8d
	movl	%ebp, %esi
	.loc 3 1049 0
	vcvtpd2psx	%xmm0, %xmm0
	.loc 3 1050 0
	movq	%rbx, %rdi
	.loc 3 1049 0
	vmulss	%xmm0, %xmm0, %xmm0
	vmovss	%xmm0, 60(%rsp)
	.loc 3 1050 0
	call	*64(%rax)
.LVL218:
	vmovsd	(%rax), %xmm0
	.loc 3 1051 0
	movl	36(%rsp), %ecx
	movl	$2, %r8d
	movq	(%rbx), %rax
	movl	56(%rsp), %edx
	movl	%ebp, %esi
	.loc 3 1050 0
	vcvtpd2psx	%xmm0, %xmm0
	.loc 3 1051 0
	movq	%rbx, %rdi
	.loc 3 1050 0
	vmulss	%xmm0, %xmm0, %xmm0
	.loc 3 1051 0
	vaddss	60(%rsp), %xmm0, %xmm0
	vmovss	%xmm0, 60(%rsp)
	call	*64(%rax)
.LVL219:
	vmovsd	(%rax), %xmm0
	vcvtpd2psx	%xmm0, %xmm0
	vmulss	%xmm0, %xmm0, %xmm0
	vaddss	60(%rsp), %xmm0, %xmm0
	vsqrtss	%xmm0, %xmm1, %xmm1
	vucomiss	%xmm1, %xmm1
	jp	.L121
.L88:
	movq	40(%rsp), %rax
	movq	48(%rsp), %rsi
	vmovss	%xmm1, (%rax,%rbp,4)
	movl	440(%rsi), %edx
	jmp	.L87
.LVL220:
.L111:
	.loc 3 982 0
	movq	48(%rsp), %rsi
	.loc 3 994 0
	movq	8(%rdi), %rdi
	xorl	%eax, %eax
	.loc 3 982 0
	movl	444(%rsi), %esi
	movl	%esi, 88(%rsp)
.LVL221:
	.loc 3 983 0
	movq	48(%rsp), %rsi
	movl	448(%rsi), %esi
	movl	%esi, 92(%rsp)
.LVL222:
	.loc 3 985 0
	movq	48(%rsp), %rsi
	vmovsd	288(%rsi), %xmm0
	vcvtpd2psx	%xmm0, %xmm0
	vmovss	%xmm0, 28(%rsp)
.LVL223:
	.loc 3 986 0
	vmovsd	296(%rsi), %xmm0
.LVL224:
	vcvtpd2psx	%xmm0, %xmm0
	vmovss	%xmm0, 72(%rsp)
.LVL225:
	.loc 3 988 0
	vmovsd	336(%rsi), %xmm0
.LVL226:
	vcvtpd2psx	%xmm0, %xmm0
	vmovss	%xmm0, 32(%rsp)
.LVL227:
	.loc 3 989 0
	vmovsd	344(%rsi), %xmm0
.LVL228:
	.loc 3 994 0
	leaq	.LC6(%rip), %rsi
	.loc 3 989 0
	vcvtpd2psx	%xmm0, %xmm0
	vmovss	%xmm0, 76(%rsp)
.LVL229:
	.loc 3 994 0
	call	_Z11gnuplot_cmdP14_GNUPLOT_CTRL_Pcz@PLT
.LVL230:
	.loc 3 995 0
	movq	8(%rbx), %rdi
	leaq	.LC5(%rip), %rsi
	xorl	%eax, %eax
	call	_Z11gnuplot_cmdP14_GNUPLOT_CTRL_Pcz@PLT
.LVL231:
	.loc 3 1001 0
	movl	88(%rsp), %ebp
	imull	92(%rsp), %ebp
	movslq	%ebp, %rbp
	salq	$2, %rbp
	movq	%rbp, %rdi
	call	malloc@PLT
.LVL232:
	.loc 3 1002 0
	movq	%rbp, %rdi
	.loc 3 1001 0
	movq	%rax, %r13
.LVL233:
	.loc 3 1002 0
	call	malloc@PLT
.LVL234:
	.loc 3 1003 0
	movq	%rbp, %rdi
	.loc 3 1002 0
	movq	%rax, %r15
.LVL235:
	.loc 3 1003 0
	call	malloc@PLT
.LVL236:
	.loc 3 1065 0
	movq	48(%rsp), %rsi
	.loc 3 1003 0
	movq	%rax, 80(%rsp)
.LVL237:
	.loc 3 1065 0
	movl	448(%rsi), %eax
.LVL238:
	testl	%eax, %eax
	jle	.L71
	.loc 3 920 0
	movslq	88(%rsp), %rcx
	.loc 3 1037 0
	movl	444(%rsi), %edx
	.loc 3 920 0
	xorl	%r14d, %r14d
	salq	$2, %rcx
	movq	%rcx, 64(%rsp)
	movq	80(%rsp), %rcx
	movq	%rcx, 40(%rsp)
.LVL239:
	.p2align 4,,10
	.p2align 3
.L99:
	.loc 3 1067 0
	testl	%edx, %edx
	.loc 3 920 0
	movl	%r14d, 36(%rsp)
.LVL240:
	.loc 3 1067 0
	jle	.L92
	vcvtsi2ss	%r14d, %xmm0, %xmm0
	xorl	%ebp, %ebp
	vmulss	72(%rsp), %xmm0, %xmm0
	vaddss	76(%rsp), %xmm0, %xmm0
	vmovss	%xmm0, 20(%rsp)
	jmp	.L98
.LVL241:
	.p2align 4,,10
	.p2align 3
.L125:
	.loc 3 1073 0
	cmpl	$2, %r12d
	jle	.L122
	.loc 3 1075 0
	cmpl	$3, %r12d
	je	.L123
.L95:
	.loc 3 920 0
	leal	1(%rbp), %eax
.LVL242:
	addq	$1, %rbp
	.loc 3 1067 0
	cmpl	%edx, %eax
	jge	.L124
.LVL243:
.L98:
	.loc 3 1069 0
	vcvtsi2ss	%ebp, %xmm0, %xmm0
	.loc 3 1071 0
	movl	24(%rsp), %r11d
	testl	%r11d, %r11d
	.loc 3 1069 0
	vmulss	28(%rsp), %xmm0, %xmm0
	vaddss	32(%rsp), %xmm0, %xmm0
	vmovss	%xmm0, 0(%r13,%rbp,4)
	.loc 3 1070 0
	vmovss	20(%rsp), %xmm0
	vmovss	%xmm0, (%r15,%r14,4)
	.loc 3 1071 0
	je	.L125
	.loc 3 1083 0
	movq	(%rbx), %rax
	movl	36(%rsp), %ecx
	movl	%r12d, %r8d
	movl	56(%rsp), %esi
	movl	%ebp, %edx
	movq	%rbx, %rdi
	call	*72(%rax)
.LVL244:
.L108:
	vmovsd	(%rax), %xmm0
	movq	40(%rsp), %rdx
	movq	48(%rsp), %rsi
	.loc 3 920 0
	leal	1(%rbp), %eax
.LVL245:
	.loc 3 1083 0
	vcvtpd2psx	%xmm0, %xmm0
	vmovss	%xmm0, (%rdx,%rbp,4)
	movl	444(%rsi), %edx
	.loc 3 920 0
	addq	$1, %rbp
	.loc 3 1067 0
	cmpl	%edx, %eax
	jl	.L98
.L124:
	movq	48(%rsp), %rsi
	movl	448(%rsi), %eax
.LVL246:
.L92:
	.loc 3 920 0
	leal	1(%r14), %ecx
.LVL247:
	movq	64(%rsp), %rsi
	addq	$1, %r14
	addq	%rsi, 40(%rsp)
	.loc 3 1065 0
	cmpl	%eax, %ecx
	jl	.L99
	jmp	.L71
.LVL248:
	.p2align 4,,10
	.p2align 3
.L122:
	.loc 3 1074 0
	movq	(%rbx), %rax
	movl	36(%rsp), %ecx
	xorl	%r8d, %r8d
	movl	56(%rsp), %esi
	movl	%ebp, %edx
	movq	%rbx, %rdi
	call	*64(%rax)
.LVL249:
	jmp	.L108
	.p2align 4,,10
	.p2align 3
.L123:
	.loc 3 1077 0
	movq	(%rbx), %rax
	movl	36(%rsp), %ecx
	xorl	%r8d, %r8d
	movl	56(%rsp), %esi
	movl	%ebp, %edx
	movq	%rbx, %rdi
	call	*64(%rax)
.LVL250:
	vmovsd	(%rax), %xmm0
	.loc 3 1078 0
	movl	36(%rsp), %ecx
	movq	(%rbx), %rax
	movl	56(%rsp), %esi
	movl	$1, %r8d
	movl	%ebp, %edx
	.loc 3 1077 0
	vcvtpd2psx	%xmm0, %xmm0
	.loc 3 1078 0
	movq	%rbx, %rdi
	.loc 3 1077 0
	vmulss	%xmm0, %xmm0, %xmm0
	vmovss	%xmm0, 60(%rsp)
	.loc 3 1078 0
	call	*64(%rax)
.LVL251:
	vmovsd	(%rax), %xmm0
	.loc 3 1079 0
	movl	36(%rsp), %ecx
	movl	$2, %r8d
	movq	(%rbx), %rax
	movl	56(%rsp), %esi
	movl	%ebp, %edx
	.loc 3 1078 0
	vcvtpd2psx	%xmm0, %xmm0
	.loc 3 1079 0
	movq	%rbx, %rdi
	.loc 3 1078 0
	vmulss	%xmm0, %xmm0, %xmm0
	.loc 3 1079 0
	vaddss	60(%rsp), %xmm0, %xmm0
	vmovss	%xmm0, 60(%rsp)
	call	*64(%rax)
.LVL252:
	vmovsd	(%rax), %xmm0
	vcvtpd2psx	%xmm0, %xmm0
	vmulss	%xmm0, %xmm0, %xmm0
	vaddss	60(%rsp), %xmm0, %xmm0
	vsqrtss	%xmm0, %xmm1, %xmm1
	vucomiss	%xmm1, %xmm1
	jp	.L126
.L96:
	movq	40(%rsp), %rax
	movq	48(%rsp), %rsi
	vmovss	%xmm1, (%rax,%rbp,4)
	movl	444(%rsi), %edx
	jmp	.L95
.LVL253:
.L121:
	.loc 3 1051 0
	call	sqrtf@PLT
.LVL254:
	vmovaps	%xmm0, %xmm1
	jmp	.L88
.LVL255:
.L116:
	.loc 3 1023 0
	call	sqrtf@PLT
.LVL256:
	vmovaps	%xmm0, %xmm1
	jmp	.L80
.LVL257:
.L126:
	.loc 3 1079 0
	call	sqrtf@PLT
.LVL258:
	vmovaps	%xmm0, %xmm1
	jmp	.L96
.LBE1121:
	.cfi_endproc
.LFE2249:
	.size	_ZN12FieldDataCPU4plotEP10PlasmaDataiiii, .-_ZN12FieldDataCPU4plotEP10PlasmaDataiiii
	.align 2
	.p2align 4,,15
	.globl	_ZN12FieldDataCPU10close_plotEv
	.type	_ZN12FieldDataCPU10close_plotEv, @function
_ZN12FieldDataCPU10close_plotEv:
.LFB2248:
	.loc 3 915 0
	.cfi_startproc
.LVL259:
	.loc 3 916 0
	movq	8(%rdi), %rdi
.LVL260:
	jmp	_Z13gnuplot_closeP14_GNUPLOT_CTRL_@PLT
.LVL261:
	.cfi_endproc
.LFE2248:
	.size	_ZN12FieldDataCPU10close_plotEv, .-_ZN12FieldDataCPU10close_plotEv
	.align 2
	.p2align 4,,15
	.globl	_ZN12FieldDataCPU10reset_plotEv
	.type	_ZN12FieldDataCPU10reset_plotEv, @function
_ZN12FieldDataCPU10reset_plotEv:
.LFB2247:
	.loc 3 910 0
	.cfi_startproc
.LVL262:
	.loc 3 911 0
	movq	8(%rdi), %rdi
.LVL263:
	jmp	_Z17gnuplot_resetplotP14_GNUPLOT_CTRL_@PLT
.LVL264:
	.cfi_endproc
.LFE2247:
	.size	_ZN12FieldDataCPU10reset_plotEv, .-_ZN12FieldDataCPU10reset_plotEv
	.align 2
	.p2align 4,,15
	.globl	_ZN12FieldDataCPU9init_plotEv
	.type	_ZN12FieldDataCPU9init_plotEv, @function
_ZN12FieldDataCPU9init_plotEv:
.LFB2246:
	.loc 3 905 0
	.cfi_startproc
.LVL265:
	pushq	%rbx
	.cfi_def_cfa_offset 16
	.cfi_offset 3, -16
	.loc 3 905 0
	movq	%rdi, %rbx
	.loc 3 906 0
	call	_Z12gnuplot_initv@PLT
.LVL266:
	movq	%rax, 8(%rbx)
	.loc 3 907 0
	popq	%rbx
	.cfi_def_cfa_offset 8
.LVL267:
	ret
	.cfi_endproc
.LFE2246:
	.size	_ZN12FieldDataCPU9init_plotEv, .-_ZN12FieldDataCPU9init_plotEv
	.align 2
	.p2align 4,,15
	.globl	_ZN12FieldDataCPU9copy_fromEP9FieldData
	.type	_ZN12FieldDataCPU9copy_fromEP9FieldData, @function
_ZN12FieldDataCPU9copy_fromEP9FieldData:
.LFB2242:
	.loc 3 750 0
	.cfi_startproc
.LVL268:
	pushq	%rbp
	.cfi_def_cfa_offset 16
	.cfi_offset 6, -16
	movq	%rsi, %rbp
	pushq	%rbx
	.cfi_def_cfa_offset 24
	.cfi_offset 3, -24
	movq	%rdi, %rbx
	subq	$8, %rsp
	.cfi_def_cfa_offset 32
	.loc 3 751 0
	movslq	88(%rbx), %rdx
	movq	40(%rdi), %rdi
.LVL269:
	movq	40(%rsi), %rsi
.LVL270:
	salq	$3, %rdx
	call	memcpy@PLT
.LVL271:
	.loc 3 752 0
	movslq	88(%rbx), %rdx
	movq	48(%rbx), %rdi
	movq	48(%rbp), %rsi
	salq	$3, %rdx
	call	memcpy@PLT
.LVL272:
	.loc 3 753 0
	movslq	88(%rbx), %rdx
	movq	56(%rbx), %rdi
	movq	56(%rbp), %rsi
	salq	$3, %rdx
	call	memcpy@PLT
.LVL273:
	.loc 3 755 0
	movslq	88(%rbx), %rdx
	movq	16(%rbx), %rdi
	movq	16(%rbp), %rsi
	salq	$3, %rdx
	call	memcpy@PLT
.LVL274:
	.loc 3 756 0
	movslq	88(%rbx), %rdx
	movq	24(%rbx), %rdi
	movq	24(%rbp), %rsi
	salq	$3, %rdx
	call	memcpy@PLT
.LVL275:
	.loc 3 757 0
	movslq	88(%rbx), %rdx
	movq	32(%rbx), %rdi
	movq	32(%rbp), %rsi
	salq	$3, %rdx
	call	memcpy@PLT
.LVL276:
	.loc 3 759 0
	movslq	84(%rbx), %rdx
	movq	64(%rbx), %rdi
	movq	64(%rbp), %rsi
	salq	$3, %rdx
	.loc 3 760 0
	addq	$8, %rsp
	.cfi_def_cfa_offset 24
	popq	%rbx
	.cfi_def_cfa_offset 16
.LVL277:
	popq	%rbp
	.cfi_def_cfa_offset 8
.LVL278:
	.loc 3 759 0
	jmp	memcpy@PLT
.LVL279:
	.cfi_endproc
.LFE2242:
	.size	_ZN12FieldDataCPU9copy_fromEP9FieldData, .-_ZN12FieldDataCPU9copy_fromEP9FieldData
	.align 2
	.p2align 4,,15
	.globl	_ZN12FieldDataCPU9broadcastEPP9FieldDataP12ParallelInfo
	.type	_ZN12FieldDataCPU9broadcastEPP9FieldDataP12ParallelInfo, @function
_ZN12FieldDataCPU9broadcastEPP9FieldDataP12ParallelInfo:
.LFB2231:
	.loc 3 70 0
	.cfi_startproc
.LVL280:
	pushq	%rbp
	.cfi_def_cfa_offset 16
	.cfi_offset 6, -16
	movq	%rsi, %rbp
	pushq	%rbx
	.cfi_def_cfa_offset 24
	.cfi_offset 3, -24
	movq	%rdi, %rbx
	subq	$8, %rsp
	.cfi_def_cfa_offset 32
	.loc 3 71 0
	movl	8(%rdx), %eax
	testl	%eax, %eax
	jne	.L132
	.loc 3 73 0
	movq	0(%rbp), %rax
	movl	88(%rdi), %esi
.LVL281:
	movl	$1140850688, %r8d
	xorl	%ecx, %ecx
	movl	$1275070475, %edx
.LVL282:
	movq	16(%rax), %rdi
.LVL283:
	call	MPI_Bcast@PLT
.LVL284:
	.loc 3 74 0
	movq	0(%rbp), %rax
	movl	88(%rbx), %esi
	movl	$1140850688, %r8d
	xorl	%ecx, %ecx
	movl	$1275070475, %edx
	movq	24(%rax), %rdi
	call	MPI_Bcast@PLT
.LVL285:
	.loc 3 75 0
	movq	0(%rbp), %rax
	movl	88(%rbx), %esi
	movl	$1140850688, %r8d
	xorl	%ecx, %ecx
	movl	$1275070475, %edx
	movq	32(%rax), %rdi
	call	MPI_Bcast@PLT
.LVL286:
	.loc 3 77 0
	movq	0(%rbp), %rax
	movl	88(%rbx), %esi
	movl	$1140850688, %r8d
	xorl	%ecx, %ecx
	movl	$1275070475, %edx
	movq	40(%rax), %rdi
	call	MPI_Bcast@PLT
.LVL287:
	.loc 3 78 0
	movq	0(%rbp), %rax
	movl	88(%rbx), %esi
	movl	$1140850688, %r8d
	xorl	%ecx, %ecx
	movl	$1275070475, %edx
	movq	48(%rax), %rdi
	call	MPI_Bcast@PLT
.LVL288:
	.loc 3 79 0
	movq	0(%rbp), %rax
	movl	88(%rbx), %esi
	movl	$1140850688, %r8d
	xorl	%ecx, %ecx
	movl	$1275070475, %edx
	movq	56(%rax), %rdi
	call	MPI_Bcast@PLT
.LVL289:
.L132:
	.loc 3 83 0
	movq	(%rbx), %rax
	movq	0(%rbp), %rsi
	movq	%rbx, %rdi
	movq	88(%rax), %rax
	.loc 3 85 0
	addq	$8, %rsp
	.cfi_def_cfa_offset 24
	popq	%rbx
	.cfi_def_cfa_offset 16
.LVL290:
	popq	%rbp
	.cfi_def_cfa_offset 8
.LVL291:
	.loc 3 83 0
	jmp	*%rax
.LVL292:
	.cfi_endproc
.LFE2231:
	.size	_ZN12FieldDataCPU9broadcastEPP9FieldDataP12ParallelInfo, .-_ZN12FieldDataCPU9broadcastEPP9FieldDataP12ParallelInfo
	.section	.rodata.str1.8,"aMS",@progbits,1
	.align 8
.LC8:
	.string	"Error: Can't average fields of different sizes"
	.text
	.p2align 4,,15
	.globl	_Z14Average_FieldsP9FieldDataS0_S0_
	.type	_Z14Average_FieldsP9FieldDataS0_S0_, @function
_Z14Average_FieldsP9FieldDataS0_S0_:
.LFB2244:
	.loc 3 799 0
	.cfi_startproc
.LVL293:
	pushq	%rbp
	.cfi_def_cfa_offset 16
	.cfi_offset 6, -16
	movq	%rdx, %r9
	movq	%rsp, %rbp
	.cfi_def_cfa_register 6
	pushq	%r15
	pushq	%r14
	pushq	%r13
	pushq	%r12
	movq	%rsi, %r12
	.cfi_offset 12, -48
	.cfi_offset 13, -40
	.cfi_offset 14, -32
	.cfi_offset 15, -24
	pushq	%rbx
	movq	%rdi, %rbx
	.cfi_offset 3, -56
	andq	$-32, %rsp
	subq	$96, %rsp
.LBB1122:
	.loc 3 801 0
	movl	88(%rdi), %edx
.LVL294:
	cmpl	88(%rsi), %edx
	jne	.L134
	.loc 3 801 0 is_stmt 0 discriminator 1
	cmpl	88(%r9), %edx
	jne	.L134
.LVL295:
.LBB1123:
	.loc 3 807 0 is_stmt 1 discriminator 1
	testl	%edx, %edx
	jle	.L136
.LBE1123:
	.loc 3 798 0
	cmpl	$5, %edx
	movl	%edx, %ecx
	.loc 3 804 0
	movq	16(%rdi), %r14
	.loc 3 798 0
	seta	%dil
.LVL296:
	shrl	$2, %ecx
	.loc 3 804 0
	movq	16(%r9), %r11
	movq	16(%rsi), %r13
	.loc 3 798 0
	leal	0(,%rcx,4), %esi
.LVL297:
	testl	%esi, %esi
	leaq	32(%r11), %r15
	sete	%r8b
	je	.L168
	leaq	32(%r14), %rax
	cmpq	%rax, %r11
	seta	%al
	cmpq	%r15, %r14
	seta	%r10b
	orl	%r10d, %eax
	leaq	32(%r13), %r10
	andl	%edi, %eax
	cmpq	%r10, %r11
	seta	%r10b
	cmpq	%r15, %r13
	seta	%r15b
	orl	%r15d, %r10d
	testb	%r10b, %al
	je	.L168
	vmovapd	.LC9(%rip), %ymm0
.LBE1122:
	xorl	%eax, %eax
	xorl	%r10d, %r10d
.LVL298:
	.p2align 4,,10
	.p2align 3
.L138:
.LBB1141:
	.loc 3 809 0 discriminator 2
	vmovupd	(%r14,%rax), %xmm2
	addl	$1, %r10d
	vmovupd	0(%r13,%rax), %xmm1
	vinsertf128	$0x1, 16(%r14,%rax), %ymm2, %ymm2
	vinsertf128	$0x1, 16(%r13,%rax), %ymm1, %ymm1
	vaddpd	%ymm1, %ymm2, %ymm1
	vmulpd	%ymm0, %ymm1, %ymm1
	vmovupd	%xmm1, (%r11,%rax)
	vextractf128	$0x1, %ymm1, 16(%r11,%rax)
	addq	$32, %rax
	cmpl	%ecx, %r10d
	jb	.L138
	.loc 3 809 0 is_stmt 0
	cmpl	%esi, %edx
	movl	%esi, %r10d
	je	.L139
.L137:
	movslq	%r10d, %r15
	vmovsd	.LC2(%rip), %xmm0
	.loc 3 798 0 is_stmt 1
	salq	$3, %r15
.LBE1141:
	xorl	%eax, %eax
.LBB1142:
.LBB1124:
	addq	%r15, %r11
	addq	%r15, %r14
	addq	%r13, %r15
	.p2align 4,,10
	.p2align 3
.L140:
	.loc 3 809 0
	vmovsd	(%r14,%rax,8), %xmm1
	vaddsd	(%r15,%rax,8), %xmm1, %xmm1
	vmulsd	%xmm0, %xmm1, %xmm1
	vmovsd	%xmm1, (%r11,%rax,8)
	addq	$1, %rax
	.loc 3 798 0
	leal	(%r10,%rax), %r13d
	.loc 3 807 0
	cmpl	%r13d, %edx
	jg	.L140
.L139:
	movq	24(%rbx), %r14
	movq	24(%r9), %r11
	movq	24(%r12), %r13
	.loc 3 798 0
	leaq	32(%r14), %rax
	leaq	32(%r11), %r15
	cmpq	%rax, %r11
	seta	%al
	cmpq	%r15, %r14
	seta	%r10b
	orl	%r10d, %eax
	leaq	32(%r13), %r10
	andl	%edi, %eax
	cmpq	%r10, %r11
	seta	%r10b
	cmpq	%r15, %r13
	seta	%r15b
	orl	%r15d, %r10d
	testb	%r10b, %al
	je	.L169
	testb	%r8b, %r8b
	jne	.L169
	vmovapd	.LC9(%rip), %ymm0
.LBE1124:
.LBE1142:
	xorl	%eax, %eax
	xorl	%r10d, %r10d
	.p2align 4,,10
	.p2align 3
.L142:
.LBB1143:
.LBB1125:
	.loc 3 814 0 discriminator 2
	vmovupd	(%r14,%rax), %xmm2
	addl	$1, %r10d
	vmovupd	0(%r13,%rax), %xmm1
	vinsertf128	$0x1, 16(%r14,%rax), %ymm2, %ymm2
	vinsertf128	$0x1, 16(%r13,%rax), %ymm1, %ymm1
	vaddpd	%ymm1, %ymm2, %ymm1
	vmulpd	%ymm0, %ymm1, %ymm1
	vmovupd	%xmm1, (%r11,%rax)
	vextractf128	$0x1, %ymm1, 16(%r11,%rax)
	addq	$32, %rax
	cmpl	%ecx, %r10d
	jb	.L142
	.loc 3 814 0 is_stmt 0
	cmpl	%esi, %edx
	movl	%esi, %r10d
	je	.L143
.LVL299:
.L141:
	movslq	%r10d, %r15
	vmovsd	.LC2(%rip), %xmm0
	.loc 3 798 0 is_stmt 1
	salq	$3, %r15
.LBE1125:
.LBE1143:
	xorl	%eax, %eax
.LBB1144:
.LBB1126:
	addq	%r15, %r11
	addq	%r15, %r14
	addq	%r13, %r15
	.p2align 4,,10
	.p2align 3
.L144:
	.loc 3 814 0
	vmovsd	(%r14,%rax,8), %xmm1
	vaddsd	(%r15,%rax,8), %xmm1, %xmm1
	vmulsd	%xmm0, %xmm1, %xmm1
	vmovsd	%xmm1, (%r11,%rax,8)
	addq	$1, %rax
	.loc 3 798 0
	leal	(%r10,%rax), %r13d
	.loc 3 812 0
	cmpl	%r13d, %edx
	jg	.L144
.L143:
	movq	32(%rbx), %r14
	movq	32(%r9), %r11
	movq	32(%r12), %r13
	.loc 3 798 0
	leaq	32(%r14), %rax
	leaq	32(%r11), %r15
	cmpq	%rax, %r11
	seta	%al
	cmpq	%r15, %r14
	seta	%r10b
	orl	%r10d, %eax
	leaq	32(%r13), %r10
	andl	%edi, %eax
	cmpq	%r10, %r11
	seta	%r10b
	cmpq	%r15, %r13
	seta	%r15b
	orl	%r15d, %r10d
	testb	%r10b, %al
	je	.L170
	testb	%r8b, %r8b
	jne	.L170
	vmovapd	.LC9(%rip), %ymm0
.LBE1126:
.LBE1144:
	xorl	%eax, %eax
	xorl	%r10d, %r10d
	.p2align 4,,10
	.p2align 3
.L146:
.LBB1145:
.LBB1127:
	.loc 3 819 0 discriminator 2
	vmovupd	(%r14,%rax), %xmm2
	addl	$1, %r10d
	vmovupd	0(%r13,%rax), %xmm1
	vinsertf128	$0x1, 16(%r14,%rax), %ymm2, %ymm2
	vinsertf128	$0x1, 16(%r13,%rax), %ymm1, %ymm1
	vaddpd	%ymm1, %ymm2, %ymm1
	vmulpd	%ymm0, %ymm1, %ymm1
	vmovupd	%xmm1, (%r11,%rax)
	vextractf128	$0x1, %ymm1, 16(%r11,%rax)
	addq	$32, %rax
	cmpl	%ecx, %r10d
	jb	.L146
	.loc 3 819 0 is_stmt 0
	cmpl	%esi, %edx
	movl	%esi, %r10d
	je	.L147
.LVL300:
.L145:
	movslq	%r10d, %r15
	vmovsd	.LC2(%rip), %xmm0
	.loc 3 798 0 is_stmt 1
	salq	$3, %r15
.LBE1127:
.LBE1145:
	xorl	%eax, %eax
.LBB1146:
.LBB1128:
	addq	%r15, %r11
	addq	%r15, %r14
	addq	%r13, %r15
	.p2align 4,,10
	.p2align 3
.L148:
	.loc 3 819 0
	vmovsd	(%r14,%rax,8), %xmm1
	vaddsd	(%r15,%rax,8), %xmm1, %xmm1
	vmulsd	%xmm0, %xmm1, %xmm1
	vmovsd	%xmm1, (%r11,%rax,8)
	addq	$1, %rax
	.loc 3 798 0
	leal	(%r10,%rax), %r13d
	.loc 3 817 0
	cmpl	%r13d, %edx
	jg	.L148
.L147:
	movq	40(%rbx), %r14
	movq	40(%r9), %r11
	movq	40(%r12), %r13
	.loc 3 798 0
	leaq	32(%r14), %rax
	leaq	32(%r11), %r15
	cmpq	%rax, %r11
	seta	%al
	cmpq	%r15, %r14
	seta	%r10b
	orl	%r10d, %eax
	leaq	32(%r13), %r10
	andl	%edi, %eax
	cmpq	%r10, %r11
	seta	%r10b
	cmpq	%r15, %r13
	seta	%r15b
	orl	%r15d, %r10d
	testb	%r10b, %al
	je	.L171
	testb	%r8b, %r8b
	jne	.L171
	vmovapd	.LC9(%rip), %ymm0
.LBE1128:
.LBE1146:
	xorl	%eax, %eax
	xorl	%r10d, %r10d
	.p2align 4,,10
	.p2align 3
.L150:
.LBB1147:
.LBB1129:
	.loc 3 826 0 discriminator 2
	vmovupd	(%r14,%rax), %xmm2
	addl	$1, %r10d
	vmovupd	0(%r13,%rax), %xmm1
	vinsertf128	$0x1, 16(%r14,%rax), %ymm2, %ymm2
	vinsertf128	$0x1, 16(%r13,%rax), %ymm1, %ymm1
	vaddpd	%ymm1, %ymm2, %ymm1
	vmulpd	%ymm0, %ymm1, %ymm1
	vmovupd	%xmm1, (%r11,%rax)
	vextractf128	$0x1, %ymm1, 16(%r11,%rax)
	addq	$32, %rax
	cmpl	%ecx, %r10d
	jb	.L150
	.loc 3 826 0 is_stmt 0
	cmpl	%esi, %edx
	movl	%esi, %r10d
	je	.L151
.LVL301:
.L149:
	movslq	%r10d, %r15
	vmovsd	.LC2(%rip), %xmm0
	.loc 3 798 0 is_stmt 1
	salq	$3, %r15
.LBE1129:
.LBE1147:
	xorl	%eax, %eax
.LBB1148:
.LBB1130:
	addq	%r15, %r11
	addq	%r15, %r14
	addq	%r13, %r15
	.p2align 4,,10
	.p2align 3
.L152:
	.loc 3 826 0
	vmovsd	(%r14,%rax,8), %xmm1
	vaddsd	(%r15,%rax,8), %xmm1, %xmm1
	vmulsd	%xmm0, %xmm1, %xmm1
	vmovsd	%xmm1, (%r11,%rax,8)
	addq	$1, %rax
	.loc 3 798 0
	leal	(%r10,%rax), %r13d
	.loc 3 824 0
	cmpl	%r13d, %edx
	jg	.L152
.L151:
	movq	48(%rbx), %r14
	movq	48(%r9), %r11
	movq	48(%r12), %r13
	.loc 3 798 0
	leaq	32(%r14), %rax
	leaq	32(%r11), %r15
	cmpq	%rax, %r11
	seta	%al
	cmpq	%r15, %r14
	seta	%r10b
	orl	%r10d, %eax
	leaq	32(%r13), %r10
	andl	%edi, %eax
	cmpq	%r10, %r11
	seta	%r10b
	cmpq	%r15, %r13
	seta	%r15b
	orl	%r15d, %r10d
	testb	%r10b, %al
	je	.L172
	testb	%r8b, %r8b
	jne	.L172
	vmovapd	.LC9(%rip), %ymm0
.LBE1130:
.LBE1148:
	xorl	%eax, %eax
	xorl	%r10d, %r10d
	.p2align 4,,10
	.p2align 3
.L154:
.LBB1149:
.LBB1131:
	.loc 3 831 0 discriminator 2
	vmovupd	(%r14,%rax), %xmm2
	addl	$1, %r10d
	vmovupd	0(%r13,%rax), %xmm1
	vinsertf128	$0x1, 16(%r14,%rax), %ymm2, %ymm2
	vinsertf128	$0x1, 16(%r13,%rax), %ymm1, %ymm1
	vaddpd	%ymm1, %ymm2, %ymm1
	vmulpd	%ymm0, %ymm1, %ymm1
	vmovupd	%xmm1, (%r11,%rax)
	vextractf128	$0x1, %ymm1, 16(%r11,%rax)
	addq	$32, %rax
	cmpl	%ecx, %r10d
	jb	.L154
	.loc 3 831 0 is_stmt 0
	cmpl	%esi, %edx
	movl	%esi, %r10d
	je	.L155
.LVL302:
.L153:
	movslq	%r10d, %r15
	vmovsd	.LC2(%rip), %xmm0
	.loc 3 798 0 is_stmt 1
	salq	$3, %r15
.LBE1131:
.LBE1149:
	xorl	%eax, %eax
.LBB1150:
.LBB1132:
	addq	%r15, %r11
	addq	%r15, %r14
	addq	%r13, %r15
	.p2align 4,,10
	.p2align 3
.L156:
	.loc 3 831 0
	vmovsd	(%r14,%rax,8), %xmm1
	vaddsd	(%r15,%rax,8), %xmm1, %xmm1
	vmulsd	%xmm0, %xmm1, %xmm1
	vmovsd	%xmm1, (%r11,%rax,8)
	addq	$1, %rax
	.loc 3 798 0
	leal	(%r10,%rax), %r13d
	.loc 3 829 0
	cmpl	%r13d, %edx
	jg	.L156
.L155:
	movq	56(%r12), %r11
	movq	56(%r9), %r10
	movq	56(%rbx), %r13
	.loc 3 798 0
	leaq	32(%r11), %rax
	leaq	32(%r10), %r15
	cmpq	%rax, %r10
	seta	%r14b
	cmpq	%r11, %r15
	setb	%al
	orl	%eax, %r14d
	leaq	32(%r13), %rax
	cmpq	%rax, %r10
	seta	%al
	cmpq	%r13, %r15
	setb	%r15b
	orl	%r15d, %eax
	andl	%edi, %eax
	testb	%al, %r14b
	je	.L173
	testb	%r8b, %r8b
	jne	.L173
	vmovapd	.LC9(%rip), %ymm0
.LBE1132:
.LBE1150:
	xorl	%eax, %eax
	xorl	%edi, %edi
	.p2align 4,,10
	.p2align 3
.L158:
.LBB1151:
.LBB1133:
	.loc 3 836 0 discriminator 2
	vmovupd	0(%r13,%rax), %xmm2
	addl	$1, %edi
	vmovupd	(%r11,%rax), %xmm1
	vinsertf128	$0x1, 16(%r13,%rax), %ymm2, %ymm2
	vinsertf128	$0x1, 16(%r11,%rax), %ymm1, %ymm1
	vaddpd	%ymm1, %ymm2, %ymm1
	vmulpd	%ymm0, %ymm1, %ymm1
	vmovupd	%xmm1, (%r10,%rax)
	vextractf128	$0x1, %ymm1, 16(%r10,%rax)
	addq	$32, %rax
	cmpl	%ecx, %edi
	jb	.L158
	.loc 3 836 0 is_stmt 0
	cmpl	%esi, %edx
	je	.L136
.LVL303:
.L157:
	movslq	%esi, %rcx
	vmovsd	.LC2(%rip), %xmm0
	.loc 3 798 0 is_stmt 1
	salq	$3, %rcx
.LBE1133:
.LBE1151:
	xorl	%eax, %eax
.LBB1152:
.LBB1134:
	addq	%rcx, %r10
	addq	%rcx, %r13
	addq	%rcx, %r11
	.p2align 4,,10
	.p2align 3
.L160:
	.loc 3 836 0
	vmovsd	0(%r13,%rax,8), %xmm1
	vaddsd	(%r11,%rax,8), %xmm1, %xmm1
	vmulsd	%xmm0, %xmm1, %xmm1
	vmovsd	%xmm1, (%r10,%rax,8)
	addq	$1, %rax
	.loc 3 798 0
	leal	(%rsi,%rax), %ecx
	.loc 3 834 0
	cmpl	%ecx, %edx
	jg	.L160
.L136:
.LBE1134:
.LBB1135:
	.loc 3 841 0
	movq	120(%rbx), %rax
	cmpl	$1, 532(%rax)
	je	.L189
.LVL304:
.L133:
.LBE1135:
.LBE1152:
	.loc 3 857 0
	leaq	-40(%rbp), %rsp
	popq	%rbx
.LVL305:
	popq	%r12
.LVL306:
	popq	%r13
	popq	%r14
	popq	%r15
	popq	%rbp
	.cfi_remember_state
	.cfi_def_cfa 7, 8
	vzeroupper
	ret
.LVL307:
.L189:
	.cfi_restore_state
.LBB1153:
.LBB1140:
.LBB1136:
	.loc 3 843 0 discriminator 1
	movl	80(%r9), %eax
	testl	%eax, %eax
	jle	.L133
	.loc 3 843 0 is_stmt 0
	movl	76(%r9), %edx
	xorl	%r15d, %r15d
.LVL308:
.L162:
.LBB1137:
	.loc 3 844 0 is_stmt 1 discriminator 1
	testl	%edx, %edx
	jle	.L166
	.loc 3 844 0 is_stmt 0
	movl	72(%r9), %eax
	xorl	%r13d, %r13d
.LVL309:
	.p2align 4,,10
	.p2align 3
.L167:
.LBB1138:
	.loc 3 845 0 is_stmt 1 discriminator 1
	xorl	%r14d, %r14d
	testl	%eax, %eax
	jg	.L188
	jmp	.L165
.LVL310:
	.p2align 4,,10
	.p2align 3
.L174:
	.loc 3 845 0 is_stmt 0
	movl	92(%rsp), %r14d
.LVL311:
.L188:
	.loc 3 847 0 is_stmt 1 discriminator 2
	movq	(%r9), %rax
	xorl	%r8d, %r8d
	movl	%r15d, %ecx
	movl	%r13d, %edx
	movl	%r14d, %esi
	movq	%r9, %rdi
	movq	%r9, 8(%rsp)
	vzeroupper
	call	*64(%rax)
.LVL312:
	movq	%rax, %r11
	leal	1(%r14), %eax
	xorl	%r8d, %r8d
	movl	%r15d, %ecx
	movl	%r13d, %edx
	movq	%rbx, %rdi
	movl	%eax, 92(%rsp)
	movq	(%rbx), %rax
	movl	92(%rsp), %esi
	movq	%r11, 16(%rsp)
	call	*64(%rax)
.LVL313:
	.loc 3 852 0 discriminator 2
	vmovsd	(%rax), %xmm0
	.loc 3 848 0 discriminator 2
	movq	(%rbx), %rax
	xorl	%r8d, %r8d
	movl	%r15d, %ecx
	movl	%r13d, %edx
	movl	%r14d, %esi
	movq	%rbx, %rdi
	.loc 3 852 0 discriminator 2
	vmovsd	%xmm0, 80(%rsp)
	.loc 3 848 0 discriminator 2
	call	*64(%rax)
.LVL314:
	.loc 3 852 0 discriminator 2
	vmovsd	(%rax), %xmm0
	.loc 3 798 0 discriminator 2
	leal	-1(%r14), %r10d
	.loc 3 849 0 discriminator 2
	movq	(%rbx), %rax
	xorl	%r8d, %r8d
	movl	%r15d, %ecx
	.loc 3 852 0 discriminator 2
	vaddsd	%xmm0, %xmm0, %xmm0
	.loc 3 849 0 discriminator 2
	movl	%r13d, %edx
	movl	%r10d, %esi
	movq	%rbx, %rdi
	movl	%r10d, 24(%rsp)
	.loc 3 852 0 discriminator 2
	vaddsd	80(%rsp), %xmm0, %xmm0
	.loc 3 849 0 discriminator 2
	vmovsd	%xmm0, 32(%rsp)
	call	*64(%rax)
.LVL315:
	.loc 3 852 0 discriminator 2
	vmovsd	32(%rsp), %xmm0
	.loc 3 850 0 discriminator 2
	xorl	%r8d, %r8d
	movl	92(%rsp), %esi
	movl	%r15d, %ecx
	movl	%r13d, %edx
	.loc 3 852 0 discriminator 2
	vaddsd	(%rax), %xmm0, %xmm0
	.loc 3 850 0 discriminator 2
	movq	(%r12), %rax
	movq	%r12, %rdi
	vmovsd	%xmm0, 32(%rsp)
	call	*64(%rax)
.LVL316:
	.loc 3 852 0 discriminator 2
	vmovsd	32(%rsp), %xmm0
	.loc 3 851 0 discriminator 2
	xorl	%r8d, %r8d
	movl	%r15d, %ecx
	movl	%r13d, %edx
	movl	%r14d, %esi
	.loc 3 852 0 discriminator 2
	vaddsd	(%rax), %xmm0, %xmm0
	.loc 3 851 0 discriminator 2
	movq	(%r12), %rax
	movq	%r12, %rdi
	.loc 3 852 0 discriminator 2
	vmovsd	%xmm0, 80(%rsp)
	.loc 3 851 0 discriminator 2
	call	*64(%rax)
.LVL317:
	.loc 3 852 0 discriminator 2
	vmovsd	(%rax), %xmm0
	xorl	%r8d, %r8d
	movl	24(%rsp), %r10d
	movq	(%r12), %rax
	movl	%r15d, %ecx
	vaddsd	%xmm0, %xmm0, %xmm0
	movl	%r13d, %edx
	movq	%r12, %rdi
	movl	%r10d, %esi
	vaddsd	80(%rsp), %xmm0, %xmm0
	vmovsd	%xmm0, 32(%rsp)
	call	*64(%rax)
.LVL318:
	vmovsd	32(%rsp), %xmm0
	.loc 3 845 0 discriminator 2
	movq	8(%rsp), %r9
	.loc 3 852 0 discriminator 2
	movq	16(%rsp), %r11
	vaddsd	(%rax), %xmm0, %xmm0
	.loc 3 845 0 discriminator 2
	movl	72(%r9), %eax
	cmpl	92(%rsp), %eax
	.loc 3 852 0 discriminator 2
	vmulsd	.LC10(%rip), %xmm0, %xmm0
	vmovsd	%xmm0, (%r11)
.LVL319:
	.loc 3 845 0 discriminator 2
	jg	.L174
	.loc 3 845 0 is_stmt 0
	movl	76(%r9), %edx
.LVL320:
.L165:
.LBE1138:
	.loc 3 844 0 is_stmt 1
	addl	$1, %r13d
.LVL321:
	cmpl	%edx, %r13d
	jl	.L167
.LBB1139:
	.loc 3 845 0
	movl	80(%r9), %eax
.LVL322:
.L166:
.LBE1139:
.LBE1137:
	.loc 3 843 0
	addl	$1, %r15d
.LVL323:
	cmpl	%eax, %r15d
	jl	.L162
	jmp	.L133
.LVL324:
.L173:
.LBE1136:
.LBE1140:
.LBE1153:
	.loc 3 798 0
	xorl	%esi, %esi
	jmp	.L157
.L172:
	xorl	%r10d, %r10d
	.p2align 4,,6
	jmp	.L153
.L171:
	xorl	%r10d, %r10d
	.p2align 4,,3
	jmp	.L149
.L170:
	xorl	%r10d, %r10d
	.p2align 4,,2
	jmp	.L145
.L169:
	xorl	%r10d, %r10d
	.p2align 4,,2
	jmp	.L141
.LVL325:
.L168:
	xorl	%r10d, %r10d
	.p2align 4,,2
	jmp	.L137
.LVL326:
.L134:
.LBB1154:
	.loc 3 803 0
	leaq	.LC8(%rip), %rdi
	call	puts@PLT
.LVL327:
	.loc 3 804 0
	movl	$1, %edi
	call	exit@PLT
.LVL328:
.LBE1154:
	.cfi_endproc
.LFE2244:
	.size	_Z14Average_FieldsP9FieldDataS0_S0_, .-_Z14Average_FieldsP9FieldDataS0_S0_
	.p2align 4,,15
	.globl	_Z17Difference_FieldsRK12FieldDataCPUS1_RS_
	.type	_Z17Difference_FieldsRK12FieldDataCPUS1_RS_, @function
_Z17Difference_FieldsRK12FieldDataCPUS1_RS_:
.LFB2245:
	.loc 3 860 0
	.cfi_startproc
.LVL329:
	pushq	%rbp
	.cfi_def_cfa_offset 16
	.cfi_offset 6, -16
	movq	%rsp, %rbp
	.cfi_def_cfa_register 6
	pushq	%r15
	pushq	%r14
	pushq	%r13
	pushq	%r12
	pushq	%rbx
.LBB1155:
	.loc 3 862 0
	movl	88(%rdi), %ecx
.LBE1155:
	.loc 3 860 0
	andq	$-32, %rsp
.LBB1173:
	.loc 3 862 0
	cmpl	88(%rsi), %ecx
	jne	.L191
	.cfi_offset 3, -56
	.cfi_offset 12, -48
	.cfi_offset 13, -40
	.cfi_offset 14, -32
	.cfi_offset 15, -24
	.loc 3 862 0 is_stmt 0 discriminator 1
	cmpl	88(%rdx), %ecx
	jne	.L191
.LVL330:
.LBB1156:
	.loc 3 868 0 is_stmt 1 discriminator 1
	testl	%ecx, %ecx
	jle	.L190
.LBE1156:
	.loc 3 859 0
	cmpl	$6, %ecx
	movl	%ecx, %r8d
	.loc 3 865 0
	movq	16(%rdx), %r12
	.loc 3 859 0
	seta	%r10b
	shrl	$2, %r8d
	.loc 3 865 0
	movq	16(%rdi), %r14
	.loc 3 859 0
	leal	0(,%r8,4), %r9d
	.loc 3 865 0
	movq	16(%rsi), %r13
	.loc 3 859 0
	leaq	32(%r12), %r15
	testl	%r9d, %r9d
	sete	%r11b
	je	.L217
	leaq	32(%r14), %rax
	cmpq	%rax, %r12
	seta	%al
	cmpq	%r15, %r14
	seta	%bl
	orl	%ebx, %eax
	leaq	32(%r13), %rbx
	andl	%r10d, %eax
	cmpq	%rbx, %r12
	seta	%bl
	cmpq	%r15, %r13
	seta	%r15b
	orl	%r15d, %ebx
	testb	%bl, %al
	je	.L217
.LBE1173:
	xorl	%eax, %eax
	xorl	%ebx, %ebx
.LVL331:
	.p2align 4,,10
	.p2align 3
.L195:
.LBB1174:
	.loc 3 870 0 discriminator 2
	vmovupd	(%r14,%rax), %xmm1
	addl	$1, %ebx
	vmovupd	0(%r13,%rax), %xmm0
	vinsertf128	$0x1, 16(%r14,%rax), %ymm1, %ymm1
	vinsertf128	$0x1, 16(%r13,%rax), %ymm0, %ymm0
	vsubpd	%ymm0, %ymm1, %ymm0
	vmovupd	%xmm0, (%r12,%rax)
	vextractf128	$0x1, %ymm0, 16(%r12,%rax)
	addq	$32, %rax
	cmpl	%r8d, %ebx
	jb	.L195
	.loc 3 870 0 is_stmt 0
	cmpl	%r9d, %ecx
	movl	%r9d, %ebx
	je	.L196
.L194:
	movslq	%ebx, %r15
.LBE1174:
	.loc 3 859 0 is_stmt 1
	xorl	%eax, %eax
.LBB1175:
	salq	$3, %r15
.LBB1157:
	addq	%r15, %r12
	addq	%r15, %r14
	addq	%r15, %r13
	.p2align 4,,10
	.p2align 3
.L197:
	.loc 3 870 0
	vmovsd	(%r14,%rax,8), %xmm0
	vsubsd	0(%r13,%rax,8), %xmm0, %xmm0
	vmovsd	%xmm0, (%r12,%rax,8)
	addq	$1, %rax
	.loc 3 859 0
	leal	(%rbx,%rax), %r15d
	.loc 3 868 0
	cmpl	%r15d, %ecx
	jg	.L197
.L196:
	movq	24(%rdi), %r14
	movq	24(%rdx), %r12
	movq	24(%rsi), %r13
	.loc 3 859 0
	leaq	32(%r14), %rax
	leaq	32(%r12), %r15
	cmpq	%rax, %r12
	seta	%al
	cmpq	%r15, %r14
	seta	%bl
	orl	%ebx, %eax
	leaq	32(%r13), %rbx
	andl	%r10d, %eax
	cmpq	%rbx, %r12
	seta	%bl
	cmpq	%r15, %r13
	seta	%r15b
	orl	%r15d, %ebx
	testb	%bl, %al
	je	.L218
	testb	%r11b, %r11b
	jne	.L218
.LBE1157:
.LBE1175:
	xorl	%eax, %eax
	xorl	%ebx, %ebx
	.p2align 4,,10
	.p2align 3
.L199:
.LBB1176:
.LBB1158:
	.loc 3 875 0 discriminator 2
	vmovupd	(%r14,%rax), %xmm1
	addl	$1, %ebx
	vmovupd	0(%r13,%rax), %xmm0
	vinsertf128	$0x1, 16(%r14,%rax), %ymm1, %ymm1
	vinsertf128	$0x1, 16(%r13,%rax), %ymm0, %ymm0
	vsubpd	%ymm0, %ymm1, %ymm0
	vmovupd	%xmm0, (%r12,%rax)
	vextractf128	$0x1, %ymm0, 16(%r12,%rax)
	addq	$32, %rax
	cmpl	%r8d, %ebx
	jb	.L199
	.loc 3 875 0 is_stmt 0
	cmpl	%r9d, %ecx
	movl	%r9d, %ebx
	je	.L200
.LVL332:
.L198:
	movslq	%ebx, %r15
.LBE1158:
.LBE1176:
	.loc 3 859 0 is_stmt 1
	xorl	%eax, %eax
.LBB1177:
.LBB1159:
	salq	$3, %r15
.LBE1159:
.LBB1160:
	addq	%r15, %r12
	addq	%r15, %r14
	addq	%r15, %r13
	.p2align 4,,10
	.p2align 3
.L201:
	.loc 3 875 0
	vmovsd	(%r14,%rax,8), %xmm0
	vsubsd	0(%r13,%rax,8), %xmm0, %xmm0
	vmovsd	%xmm0, (%r12,%rax,8)
	addq	$1, %rax
	.loc 3 859 0
	leal	(%rbx,%rax), %r15d
	.loc 3 873 0
	cmpl	%r15d, %ecx
	jg	.L201
.L200:
	movq	32(%rdi), %r14
	movq	32(%rdx), %r12
	movq	32(%rsi), %r13
	.loc 3 859 0
	leaq	32(%r14), %rax
	leaq	32(%r12), %r15
	cmpq	%rax, %r12
	seta	%al
	cmpq	%r15, %r14
	seta	%bl
	orl	%ebx, %eax
	leaq	32(%r13), %rbx
	andl	%r10d, %eax
	cmpq	%rbx, %r12
	seta	%bl
	cmpq	%r15, %r13
	seta	%r15b
	orl	%r15d, %ebx
	testb	%bl, %al
	je	.L219
	testb	%r11b, %r11b
	jne	.L219
.LBE1160:
.LBE1177:
	xorl	%eax, %eax
	xorl	%ebx, %ebx
	.p2align 4,,10
	.p2align 3
.L203:
.LBB1178:
.LBB1161:
	.loc 3 880 0 discriminator 2
	vmovupd	(%r14,%rax), %xmm1
	addl	$1, %ebx
	vmovupd	0(%r13,%rax), %xmm0
	vinsertf128	$0x1, 16(%r14,%rax), %ymm1, %ymm1
	vinsertf128	$0x1, 16(%r13,%rax), %ymm0, %ymm0
	vsubpd	%ymm0, %ymm1, %ymm0
	vmovupd	%xmm0, (%r12,%rax)
	vextractf128	$0x1, %ymm0, 16(%r12,%rax)
	addq	$32, %rax
	cmpl	%r8d, %ebx
	jb	.L203
	.loc 3 880 0 is_stmt 0
	cmpl	%r9d, %ecx
	movl	%r9d, %ebx
	je	.L204
.LVL333:
.L202:
	movslq	%ebx, %r15
.LBE1161:
.LBE1178:
	.loc 3 859 0 is_stmt 1
	xorl	%eax, %eax
.LBB1179:
.LBB1162:
	salq	$3, %r15
.LBE1162:
.LBB1163:
	addq	%r15, %r12
	addq	%r15, %r14
	addq	%r15, %r13
	.p2align 4,,10
	.p2align 3
.L205:
	.loc 3 880 0
	vmovsd	(%r14,%rax,8), %xmm0
	vsubsd	0(%r13,%rax,8), %xmm0, %xmm0
	vmovsd	%xmm0, (%r12,%rax,8)
	addq	$1, %rax
	.loc 3 859 0
	leal	(%rbx,%rax), %r15d
	.loc 3 878 0
	cmpl	%r15d, %ecx
	jg	.L205
.L204:
	movq	40(%rdi), %r14
	movq	40(%rdx), %r12
	movq	40(%rsi), %r13
	.loc 3 859 0
	leaq	32(%r14), %rax
	leaq	32(%r12), %r15
	cmpq	%rax, %r12
	seta	%al
	cmpq	%r15, %r14
	seta	%bl
	orl	%ebx, %eax
	leaq	32(%r13), %rbx
	andl	%r10d, %eax
	cmpq	%rbx, %r12
	seta	%bl
	cmpq	%r15, %r13
	seta	%r15b
	orl	%r15d, %ebx
	testb	%bl, %al
	je	.L220
	testb	%r11b, %r11b
	jne	.L220
.LBE1163:
.LBE1179:
	xorl	%eax, %eax
	xorl	%ebx, %ebx
	.p2align 4,,10
	.p2align 3
.L207:
.LBB1180:
.LBB1164:
	.loc 3 887 0 discriminator 2
	vmovupd	(%r14,%rax), %xmm1
	addl	$1, %ebx
	vmovupd	0(%r13,%rax), %xmm0
	vinsertf128	$0x1, 16(%r14,%rax), %ymm1, %ymm1
	vinsertf128	$0x1, 16(%r13,%rax), %ymm0, %ymm0
	vsubpd	%ymm0, %ymm1, %ymm0
	vmovupd	%xmm0, (%r12,%rax)
	vextractf128	$0x1, %ymm0, 16(%r12,%rax)
	addq	$32, %rax
	cmpl	%r8d, %ebx
	jb	.L207
	.loc 3 887 0 is_stmt 0
	cmpl	%r9d, %ecx
	movl	%r9d, %ebx
	je	.L208
.LVL334:
.L206:
	movslq	%ebx, %r15
.LBE1164:
.LBE1180:
	.loc 3 859 0 is_stmt 1
	xorl	%eax, %eax
.LBB1181:
.LBB1165:
	salq	$3, %r15
.LBE1165:
.LBB1166:
	addq	%r15, %r12
	addq	%r15, %r14
	addq	%r15, %r13
	.p2align 4,,10
	.p2align 3
.L209:
	.loc 3 887 0
	vmovsd	(%r14,%rax,8), %xmm0
	vsubsd	0(%r13,%rax,8), %xmm0, %xmm0
	vmovsd	%xmm0, (%r12,%rax,8)
	addq	$1, %rax
	.loc 3 859 0
	leal	(%rbx,%rax), %r15d
	.loc 3 885 0
	cmpl	%r15d, %ecx
	jg	.L209
.L208:
	movq	48(%rdi), %r14
	movq	48(%rdx), %r12
	movq	48(%rsi), %r13
	.loc 3 859 0
	leaq	32(%r14), %rax
	leaq	32(%r12), %r15
	cmpq	%rax, %r12
	seta	%al
	cmpq	%r15, %r14
	seta	%bl
	orl	%ebx, %eax
	leaq	32(%r13), %rbx
	andl	%r10d, %eax
	cmpq	%rbx, %r12
	seta	%bl
	cmpq	%r15, %r13
	seta	%r15b
	orl	%r15d, %ebx
	testb	%bl, %al
	je	.L221
	testb	%r11b, %r11b
	jne	.L221
.LBE1166:
.LBE1181:
	xorl	%eax, %eax
	xorl	%ebx, %ebx
	.p2align 4,,10
	.p2align 3
.L211:
.LBB1182:
.LBB1167:
	.loc 3 892 0 discriminator 2
	vmovupd	(%r14,%rax), %xmm1
	addl	$1, %ebx
	vmovupd	0(%r13,%rax), %xmm0
	vinsertf128	$0x1, 16(%r14,%rax), %ymm1, %ymm1
	vinsertf128	$0x1, 16(%r13,%rax), %ymm0, %ymm0
	vsubpd	%ymm0, %ymm1, %ymm0
	vmovupd	%xmm0, (%r12,%rax)
	vextractf128	$0x1, %ymm0, 16(%r12,%rax)
	addq	$32, %rax
	cmpl	%r8d, %ebx
	jb	.L211
	.loc 3 892 0 is_stmt 0
	cmpl	%r9d, %ecx
	movl	%r9d, %ebx
	je	.L212
.LVL335:
.L210:
	movslq	%ebx, %r15
.LBE1167:
.LBE1182:
	.loc 3 859 0 is_stmt 1
	xorl	%eax, %eax
.LBB1183:
.LBB1168:
	salq	$3, %r15
.LBE1168:
.LBB1169:
	addq	%r15, %r12
	addq	%r15, %r14
	addq	%r15, %r13
	.p2align 4,,10
	.p2align 3
.L213:
	.loc 3 892 0
	vmovsd	(%r14,%rax,8), %xmm0
	vsubsd	0(%r13,%rax,8), %xmm0, %xmm0
	vmovsd	%xmm0, (%r12,%rax,8)
	addq	$1, %rax
	.loc 3 859 0
	leal	(%rbx,%rax), %r15d
	.loc 3 890 0
	cmpl	%r15d, %ecx
	jg	.L213
.L212:
	movq	56(%rdi), %rdi
.LVL336:
	movq	56(%rdx), %rbx
	movq	56(%rsi), %rsi
.LVL337:
	.loc 3 859 0
	leaq	32(%rdi), %rax
	leaq	32(%rbx), %r12
	cmpq	%rax, %rbx
	seta	%al
	cmpq	%rdi, %r12
	setb	%dl
.LVL338:
	orl	%edx, %eax
	leaq	32(%rsi), %rdx
	andl	%r10d, %eax
	cmpq	%rdx, %rbx
	seta	%dl
	cmpq	%rsi, %r12
	setb	%r10b
	orl	%r10d, %edx
	testb	%dl, %al
	je	.L222
	testb	%r11b, %r11b
	jne	.L222
.LBE1169:
.LBE1183:
	xorl	%eax, %eax
	xorl	%edx, %edx
	.p2align 4,,10
	.p2align 3
.L215:
.LBB1184:
.LBB1170:
	.loc 3 897 0 discriminator 2
	vmovupd	(%rdi,%rax), %xmm1
	addl	$1, %edx
	vmovupd	(%rsi,%rax), %xmm0
	vinsertf128	$0x1, 16(%rdi,%rax), %ymm1, %ymm1
	vinsertf128	$0x1, 16(%rsi,%rax), %ymm0, %ymm0
	vsubpd	%ymm0, %ymm1, %ymm0
	vmovupd	%xmm0, (%rbx,%rax)
	vextractf128	$0x1, %ymm0, 16(%rbx,%rax)
	addq	$32, %rax
	cmpl	%r8d, %edx
	jb	.L215
	.loc 3 897 0 is_stmt 0
	cmpl	%r9d, %ecx
	je	.L190
.LVL339:
.L214:
	movslq	%r9d, %rdx
.LBE1170:
.LBE1184:
	.loc 3 859 0 is_stmt 1
	xorl	%eax, %eax
.LBB1185:
.LBB1171:
	salq	$3, %rdx
.LBE1171:
.LBB1172:
	addq	%rdx, %rbx
	addq	%rdx, %rdi
	addq	%rdx, %rsi
	.p2align 4,,10
	.p2align 3
.L216:
	.loc 3 897 0
	vmovsd	(%rdi,%rax,8), %xmm0
	vsubsd	(%rsi,%rax,8), %xmm0, %xmm0
	vmovsd	%xmm0, (%rbx,%rax,8)
	addq	$1, %rax
	.loc 3 859 0
	leal	(%r9,%rax), %edx
	.loc 3 895 0
	cmpl	%edx, %ecx
	jg	.L216
.L190:
.LBE1172:
.LBE1185:
	.loc 3 901 0
	leaq	-40(%rbp), %rsp
	popq	%rbx
	popq	%r12
	popq	%r13
	popq	%r14
	popq	%r15
	popq	%rbp
	.cfi_remember_state
	.cfi_def_cfa 7, 8
	vzeroupper
	ret
.LVL340:
.L191:
	.cfi_restore_state
.LBB1186:
	.loc 3 864 0
	leaq	.LC8(%rip), %rdi
.LVL341:
	call	puts@PLT
.LVL342:
	.loc 3 865 0
	movl	$1, %edi
	call	exit@PLT
.LVL343:
.L222:
.LBE1186:
	.loc 3 859 0
	xorl	%r9d, %r9d
	jmp	.L214
.LVL344:
.L221:
	xorl	%ebx, %ebx
	jmp	.L210
.L220:
	xorl	%ebx, %ebx
	.p2align 4,,4
	jmp	.L206
.L219:
	xorl	%ebx, %ebx
	.p2align 4,,5
	jmp	.L202
.L218:
	xorl	%ebx, %ebx
	.p2align 4,,5
	jmp	.L198
.LVL345:
.L217:
	xorl	%ebx, %ebx
	.p2align 4,,5
	jmp	.L194
	.cfi_endproc
.LFE2245:
	.size	_Z17Difference_FieldsRK12FieldDataCPUS1_RS_, .-_Z17Difference_FieldsRK12FieldDataCPUS1_RS_
	.section	.text._ZN12FieldDataCPU7intrpETILi0EL15FieldData_deriv0EEEddddiii,"axG",@progbits,_ZN12FieldDataCPU7intrpETILi0EL15FieldData_deriv0EEEddddiii,comdat
	.align 2
	.p2align 4,,15
	.weak	_ZN12FieldDataCPU7intrpETILi0EL15FieldData_deriv0EEEddddiii
	.type	_ZN12FieldDataCPU7intrpETILi0EL15FieldData_deriv0EEEddddiii, @function
_ZN12FieldDataCPU7intrpETILi0EL15FieldData_deriv0EEEddddiii:
.LFB2312:
	.loc 3 253 0
	.cfi_startproc
.LVL346:
	pushq	%r15
	.cfi_def_cfa_offset 16
	.cfi_offset 15, -16
	pushq	%r14
	.cfi_def_cfa_offset 24
	.cfi_offset 14, -24
	pushq	%r13
	.cfi_def_cfa_offset 32
	.cfi_offset 13, -32
	pushq	%r12
	.cfi_def_cfa_offset 40
	.cfi_offset 12, -40
	pushq	%rbp
	.cfi_def_cfa_offset 48
	.cfi_offset 6, -48
	pushq	%rbx
	.cfi_def_cfa_offset 56
	.cfi_offset 3, -56
.LBB1211:
.LBB1212:
	.loc 3 257 0
	cmpl	$1, 92(%rdi)
	je	.L236
	movl	72(%rdi), %ebp
	movl	%esi, %r10d
	movl	80(%rdi), %r8d
.LBB1213:
.LBB1214:
.LBB1215:
.LBB1216:
.LBB1217:
.LBB1218:
	.loc 3 158 0
	addl	$1, %esi
.LVL347:
.LBE1218:
.LBE1217:
.LBE1216:
.LBE1215:
.LBE1214:
.LBE1213:
	.loc 3 257 0
	vxorpd	%xmm5, %xmm5, %xmm5
	movl	76(%rdi), %r9d
	vmovss	.LC11(%rip), %xmm10
	movq	16(%rdi), %rdi
.LVL348:
	leal	-1(%rbp), %ebx
	movl	%r8d, %r13d
	movl	%r8d, -4(%rsp)
	vsubsd	%xmm0, %xmm5, %xmm4
	subl	$1, %r13d
	andl	%ebx, %r10d
.LVL349:
.LBB1617:
.LBB1589:
.LBB1561:
.LBB1533:
.LBB1367:
.LBB1313:
	.loc 3 158 0
	andl	%ebx, %esi
.LVL350:
.LBE1313:
.LBE1367:
.LBE1533:
.LBE1561:
.LBE1589:
.LBE1617:
	.loc 3 257 0
	leal	-1(%r9), %eax
	addl	%ebp, %r10d
.LBB1618:
.LBB1590:
.LBB1562:
.LBB1534:
.LBB1368:
.LBB1314:
	.loc 3 158 0
	addl	%ebp, %esi
.LBE1314:
.LBE1368:
.LBE1534:
.LBE1562:
.LBE1590:
.LBE1618:
	.loc 3 257 0
	andl	%ebx, %r10d
.LBB1619:
.LBB1591:
.LBB1563:
.LBB1535:
.LBB1369:
.LBB1315:
	.loc 3 158 0
	andl	%ebx, %esi
.LBE1315:
.LBE1369:
.LBE1535:
.LBE1563:
.LBE1591:
.LBE1619:
	.loc 3 257 0
	movl	%r10d, %r8d
	vmovddup	%xmm4, %xmm4
	sall	$16, %r8d
	vmovsd	.LC12(%rip), %xmm3
	orl	%r10d, %r8d
.LBB1620:
.LBB1592:
.LBB1564:
.LBB1536:
.LBB1370:
.LBB1371:
	.file 4 "ShapeFunctions.h"
	.loc 4 23 0
	vxorps	%xmm6, %xmm6, %xmm6
.LBE1371:
.LBE1370:
.LBE1536:
.LBE1564:
.LBE1592:
.LBE1620:
	.loc 3 257 0
	andl	$50331903, %r8d
	vsubsd	%xmm0, %xmm3, %xmm0
.LVL351:
	movl	%r8d, %r10d
.LBB1621:
.LBB1593:
.LBB1565:
.LBB1537:
.LBB1386:
.LBB1372:
	.loc 4 23 0
	vmovss	.LC13(%rip), %xmm3
.LBE1372:
.LBE1386:
.LBE1537:
.LBE1565:
.LBE1593:
.LBE1621:
	.loc 3 257 0
	sall	$8, %r10d
.LBB1622:
.LBB1594:
.LBB1566:
.LBB1538:
	.loc 3 324 0
	vmovsd	.LC17(%rip), %xmm8
.LBE1538:
.LBE1566:
.LBE1594:
.LBE1622:
	.loc 3 257 0
	orl	%r8d, %r10d
.LBB1623:
.LBB1595:
.LBB1567:
.LBB1539:
	.loc 3 324 0
	vmovsd	.LC2(%rip), %xmm15
.LBE1539:
.LBE1567:
.LBE1595:
.LBE1623:
	.loc 3 257 0
	andl	$50393103, %r10d
	vmovddup	%xmm0, %xmm0
	movl	%r10d, %r8d
.LBB1624:
.LBB1596:
.LBB1568:
.LBB1540:
	.loc 3 324 0
	vsubsd	%xmm1, %xmm8, %xmm8
.LBE1540:
.LBE1568:
.LBE1596:
.LBE1624:
	.loc 3 257 0
	sall	$4, %r8d
.LBB1625:
.LBB1597:
.LBB1569:
.LBB1541:
	.loc 3 324 0
	vsubsd	%xmm1, %xmm15, %xmm7
.LBE1541:
.LBE1569:
.LBE1597:
.LBE1625:
	.loc 3 257 0
	orl	%r10d, %r8d
.LBB1626:
.LBB1598:
.LBB1570:
.LBB1542:
.LBB1387:
.LBB1316:
.LBB1219:
.LBB1220:
	.loc 3 14 0
	movl	%esi, %r10d
.LBE1220:
.LBE1219:
.LBE1316:
.LBE1387:
.LBE1542:
.LBE1570:
.LBE1598:
.LBE1626:
	.loc 3 257 0
	andl	$51130563, %r8d
.LBB1627:
.LBB1599:
.LBB1571:
.LBB1543:
.LBB1388:
.LBB1317:
.LBB1267:
.LBB1221:
	.loc 3 14 0
	sall	$16, %r10d
	orl	%esi, %r10d
.LBE1221:
.LBE1267:
.LBE1317:
.LBE1388:
.LBE1543:
.LBE1571:
.LBE1599:
.LBE1627:
	.loc 3 257 0
	leal	0(,%r8,4), %r11d
.LBB1628:
.LBB1600:
.LBB1572:
.LBB1544:
.LBB1389:
.LBB1318:
.LBB1268:
.LBB1222:
	.loc 3 14 0
	andl	$50331903, %r10d
.LBE1222:
.LBE1268:
.LBE1318:
.LBE1389:
	.loc 3 332 0
	vmovddup	%xmm8, %xmm8
.LBE1544:
.LBE1572:
.LBE1600:
.LBE1628:
	.loc 3 257 0
	orl	%r8d, %r11d
.LBB1629:
.LBB1601:
.LBB1573:
.LBB1545:
.LBB1390:
.LBB1319:
.LBB1269:
.LBB1223:
	.loc 3 15 0
	movl	%r10d, %r8d
	sall	$8, %r8d
.LBE1223:
.LBE1269:
.LBE1319:
.LBE1390:
.LBE1545:
.LBE1573:
.LBE1601:
.LBE1629:
	.loc 3 257 0
	andl	$153391689, %r11d
.LBB1630:
.LBB1602:
.LBB1574:
.LBB1546:
.LBB1391:
.LBB1320:
.LBB1270:
.LBB1224:
	.loc 3 15 0
	orl	%r10d, %r8d
.LBE1224:
.LBE1270:
.LBE1320:
.LBE1391:
	.loc 3 332 0
	vmovddup	%xmm7, %xmm7
.LBB1392:
.LBB1321:
.LBB1271:
.LBB1225:
	.loc 3 15 0
	andl	$50393103, %r8d
.LBE1225:
.LBE1271:
.LBE1321:
.LBE1392:
.LBB1393:
.LBB1394:
	.loc 4 39 0
	vmovss	.LC16(%rip), %xmm9
.LBE1394:
.LBE1393:
.LBB1416:
.LBB1322:
.LBB1272:
.LBB1226:
	.loc 3 16 0
	movl	%r8d, %esi
	sall	$4, %esi
	orl	%r8d, %esi
	andl	$51130563, %esi
	.loc 3 17 0
	leal	0(,%rsi,4), %r10d
.LBE1226:
.LBE1272:
.LBE1322:
.LBE1416:
.LBE1546:
.LBE1574:
.LBE1602:
.LBE1630:
	.loc 3 257 0
	vcvtpd2psx	%xmm4, %xmm4
.LBB1631:
.LBB1603:
.LBB1575:
.LBB1547:
.LBB1417:
.LBB1323:
.LBB1273:
.LBB1227:
	.loc 3 17 0
	orl	%esi, %r10d
.LBE1227:
.LBE1273:
.LBE1323:
.LBE1417:
	.loc 3 332 0
	movl	$-1, %esi
	.loc 3 321 0
	leal	(%rdx,%rsi), %ebx
.LBB1418:
.LBB1324:
.LBB1274:
.LBB1228:
	.loc 3 17 0
	andl	$153391689, %r10d
.LBE1228:
.LBE1274:
.LBE1324:
.LBE1418:
.LBE1547:
.LBE1575:
.LBE1603:
.LBE1631:
	.loc 3 257 0
	vcvtpd2psx	%xmm0, %xmm0
.LBB1632:
.LBB1604:
.LBB1576:
.LBB1548:
.LBB1419:
.LBB1325:
	.loc 3 159 0
	andl	%eax, %ebx
	addl	%r9d, %ebx
	andl	%eax, %ebx
.LBB1275:
.LBB1229:
	.loc 3 19 0
	movl	%ebx, %r8d
	sall	$16, %r8d
.LBE1229:
.LBE1275:
.LBE1325:
.LBE1419:
.LBE1548:
.LBE1576:
.LBE1604:
.LBE1632:
	.loc 3 257 0
	vandps	%xmm10, %xmm4, %xmm4
.LBB1633:
.LBB1605:
.LBB1577:
.LBB1549:
.LBB1420:
.LBB1326:
.LBB1276:
.LBB1230:
	.loc 3 19 0
	orl	%ebx, %r8d
	andl	$50331903, %r8d
	.loc 3 20 0
	movl	%r8d, %ebx
.LBE1230:
.LBE1276:
.LBE1326:
.LBE1420:
.LBB1421:
.LBB1373:
	.loc 4 23 0
	vsubss	%xmm4, %xmm3, %xmm12
.LBE1373:
.LBE1421:
.LBB1422:
.LBB1327:
.LBB1277:
.LBB1231:
	.loc 3 20 0
	sall	$8, %ebx
.LBE1231:
.LBE1277:
.LBE1327:
.LBE1422:
.LBB1423:
.LBB1374:
	.loc 4 23 0
	vcmpngess	%xmm4, %xmm3, %xmm4
.LBE1374:
.LBE1423:
.LBB1424:
.LBB1328:
.LBB1278:
.LBB1232:
	.loc 3 20 0
	orl	%r8d, %ebx
.LBE1232:
.LBE1278:
.LBE1328:
.LBE1424:
.LBE1549:
.LBE1577:
.LBE1605:
.LBE1633:
	.loc 3 257 0
	vandps	%xmm10, %xmm0, %xmm0
.LBB1634:
.LBB1606:
.LBB1578:
.LBB1550:
.LBB1425:
.LBB1329:
.LBB1279:
.LBB1233:
	.loc 3 20 0
	andl	$50393103, %ebx
.LBE1233:
.LBE1279:
.LBE1329:
.LBE1425:
.LBB1426:
.LBB1375:
	.loc 4 23 0
	vandps	%xmm4, %xmm6, %xmm6
.LBE1375:
.LBE1426:
.LBB1427:
.LBB1330:
.LBB1280:
.LBB1234:
	.loc 3 21 0
	movl	%ebx, %r8d
.LBE1234:
.LBE1280:
.LBE1330:
.LBE1427:
.LBB1428:
.LBB1376:
	.loc 4 23 0
	vandnps	%xmm3, %xmm4, %xmm4
.LBE1376:
.LBE1428:
.LBB1429:
.LBB1331:
.LBB1281:
.LBB1235:
	.loc 3 21 0
	sall	$4, %r8d
.LBE1235:
.LBE1281:
.LBE1331:
.LBE1429:
.LBB1430:
.LBB1377:
	.loc 4 23 0
	vsubss	%xmm0, %xmm3, %xmm11
.LBE1377:
.LBE1430:
.LBB1431:
.LBB1332:
.LBB1282:
.LBB1236:
	.loc 3 21 0
	orl	%ebx, %r8d
.LBE1236:
.LBE1282:
	.loc 3 159 0
	movl	%edx, %ebx
.LBE1332:
.LBE1431:
	.loc 3 321 0
	addl	$1, %edx
.LVL352:
.LBB1432:
.LBB1333:
.LBB1283:
.LBB1237:
	.loc 3 21 0
	andl	$51130563, %r8d
.LBE1237:
.LBE1283:
	.loc 3 159 0
	andl	%eax, %ebx
.LVL353:
	andl	%eax, %edx
.LVL354:
	addl	%r9d, %ebx
.LBB1284:
.LBB1238:
	.loc 3 22 0
	leal	0(,%r8,4), %r12d
.LBE1238:
.LBE1284:
	.loc 3 159 0
	addl	%edx, %r9d
	andl	%eax, %ebx
.LBE1333:
.LBE1432:
.LBB1433:
.LBB1378:
	.loc 4 23 0
	vorps	%xmm6, %xmm4, %xmm6
.LBE1378:
.LBE1433:
.LBB1434:
.LBB1334:
.LBB1285:
.LBB1239:
	.loc 3 22 0
	orl	%r8d, %r12d
	.loc 3 19 0
	movl	%ebx, %r8d
.LBE1239:
.LBE1285:
	.loc 3 159 0
	andl	%eax, %r9d
.LBB1286:
.LBB1240:
	.loc 3 19 0
	sall	$16, %r8d
.LBE1240:
.LBE1286:
.LBE1334:
.LBE1434:
.LBB1435:
.LBB1379:
	.loc 4 23 0
	vxorps	%xmm4, %xmm4, %xmm4
.LBE1379:
.LBE1435:
.LBB1436:
.LBB1335:
.LBB1287:
.LBB1241:
	.loc 3 19 0
	orl	%ebx, %r8d
.LBE1241:
.LBE1287:
.LBE1335:
.LBE1436:
.LBB1437:
.LBB1380:
	.loc 4 23 0
	vmulss	%xmm6, %xmm12, %xmm6
.LBE1380:
.LBE1437:
.LBB1438:
.LBB1336:
.LBB1288:
.LBB1242:
	.loc 3 19 0
	movl	%r9d, %eax
	andl	$50331903, %r8d
.LBE1242:
.LBE1288:
.LBE1336:
.LBE1438:
.LBB1439:
.LBB1381:
	.loc 4 23 0
	vcmpngess	%xmm0, %xmm3, %xmm0
.LBE1381:
.LBE1439:
.LBB1440:
.LBB1337:
.LBB1289:
.LBB1243:
	.loc 3 19 0
	sall	$16, %eax
	.loc 3 20 0
	movl	%r8d, %ebx
	.loc 3 22 0
	andl	$153391689, %r12d
	.loc 3 19 0
	orl	%r9d, %eax
	.loc 3 20 0
	sall	$8, %ebx
.LBE1243:
.LBE1289:
.LBE1337:
.LBE1440:
.LBB1441:
.LBB1382:
	.loc 4 23 0
	vandps	%xmm0, %xmm4, %xmm4
.LBE1382:
.LBE1441:
.LBB1442:
.LBB1338:
.LBB1290:
.LBB1244:
	.loc 3 20 0
	orl	%r8d, %ebx
.LBE1244:
.LBE1290:
.LBE1338:
.LBE1442:
	.loc 3 332 0
	vunpcklps	%xmm6, %xmm6, %xmm6
.LBB1443:
.LBB1339:
.LBB1291:
.LBB1245:
	.loc 3 20 0
	andl	$50393103, %ebx
.LBE1245:
.LBE1291:
.LBE1339:
.LBE1443:
.LBB1444:
.LBB1383:
	.loc 4 23 0
	vandnps	%xmm3, %xmm0, %xmm0
.LBE1383:
.LBE1444:
.LBB1445:
.LBB1340:
.LBB1292:
.LBB1246:
	.loc 3 21 0
	movl	%ebx, %r8d
	.loc 3 29 0
	addl	%r12d, %r12d
	.loc 3 21 0
	sall	$4, %r8d
.LBE1246:
.LBE1292:
.LBE1340:
.LBE1445:
	.loc 3 332 0
	vcvtps2pd	%xmm6, %xmm12
.LBB1446:
.LBB1341:
.LBB1293:
.LBB1247:
	.loc 3 21 0
	orl	%ebx, %r8d
.LBE1247:
.LBE1293:
.LBE1341:
.LBE1446:
.LBB1447:
.LBB1384:
	.loc 4 23 0
	vorps	%xmm4, %xmm0, %xmm4
.LBE1384:
.LBE1447:
	.loc 3 324 0
	vmovsd	.LC18(%rip), %xmm6
.LBB1448:
.LBB1342:
.LBB1294:
.LBB1248:
	.loc 3 21 0
	andl	$51130563, %r8d
	.loc 3 22 0
	leal	0(,%r8,4), %ebp
.LBE1248:
.LBE1294:
.LBE1342:
.LBE1448:
	.loc 3 332 0
	vmovapd	%xmm5, %xmm0
	.loc 3 324 0
	vsubsd	%xmm1, %xmm6, %xmm6
.LBB1449:
.LBB1385:
	.loc 4 23 0
	vmulss	%xmm4, %xmm11, %xmm4
.LBE1385:
.LBE1449:
.LBB1450:
.LBB1343:
.LBB1295:
.LBB1249:
	.loc 3 22 0
	orl	%r8d, %ebp
	vmovss	.LC15(%rip), %xmm3
	andl	$153391689, %ebp
	.loc 3 29 0
	addl	%ebp, %ebp
	.loc 3 19 0
	andl	$50331903, %eax
.LBE1249:
.LBE1295:
.LBE1343:
.LBE1450:
	.loc 3 332 0
	vmovddup	%xmm6, %xmm6
.LBB1451:
.LBB1344:
.LBB1296:
.LBB1250:
	.loc 3 20 0
	movl	%eax, %edx
	sall	$8, %edx
.LBE1250:
.LBE1296:
.LBE1344:
.LBE1451:
	.loc 3 332 0
	vunpcklps	%xmm4, %xmm4, %xmm4
.LBB1452:
.LBB1345:
.LBB1297:
.LBB1251:
	.loc 3 20 0
	orl	%eax, %edx
.LBE1251:
.LBE1297:
.LBE1345:
.LBE1452:
	.loc 3 332 0
	vcvtpd2psx	%xmm8, %xmm8
.LBB1453:
.LBB1346:
.LBB1298:
.LBB1252:
	.loc 3 20 0
	andl	$50393103, %edx
.LBE1252:
.LBE1298:
.LBE1346:
.LBE1453:
	.loc 3 332 0
	vcvtpd2psx	%xmm7, %xmm7
.LBB1454:
.LBB1347:
.LBB1299:
.LBB1253:
	.loc 3 21 0
	movl	%edx, %eax
.LBE1253:
.LBE1299:
.LBE1347:
.LBE1454:
	.loc 3 332 0
	vcvtpd2psx	%xmm6, %xmm6
.LBB1455:
.LBB1348:
.LBB1300:
.LBB1254:
	.loc 3 21 0
	sall	$4, %eax
	orl	%edx, %eax
.LBE1254:
.LBE1300:
.LBE1348:
.LBE1455:
	.loc 3 332 0
	vcvtps2pd	%xmm4, %xmm11
.LBB1456:
.LBB1349:
.LBB1301:
.LBB1255:
	.loc 3 21 0
	andl	$51130563, %eax
	.loc 3 22 0
	leal	0(,%rax,4), %ebx
.LBE1255:
.LBE1301:
.LBE1349:
.LBE1456:
.LBB1457:
.LBB1395:
	.loc 4 35 0
	vandps	%xmm10, %xmm8, %xmm8
	vmovss	.LC14(%rip), %xmm4
.LBE1395:
.LBE1457:
.LBB1458:
.LBB1350:
.LBB1302:
.LBB1256:
	.loc 3 22 0
	orl	%eax, %ebx
.LBE1256:
.LBE1302:
.LBE1350:
.LBE1458:
.LBB1459:
.LBB1396:
	.loc 4 35 0
	vandps	%xmm10, %xmm7, %xmm7
.LBE1396:
.LBE1459:
.LBB1460:
.LBB1351:
.LBB1303:
.LBB1257:
	.loc 3 22 0
	andl	$153391689, %ebx
.LBE1257:
.LBE1303:
.LBE1351:
.LBE1460:
.LBB1461:
.LBB1397:
	.loc 4 35 0
	vandps	%xmm10, %xmm6, %xmm6
.LBE1397:
.LBE1461:
.LBB1462:
.LBB1352:
.LBB1304:
.LBB1258:
	.loc 3 29 0
	addl	%ebx, %ebx
.LVL355:
.L241:
.LBE1258:
.LBE1304:
.LBE1352:
.LBE1462:
.LBE1550:
.LBE1578:
.LBE1606:
	.loc 3 313 0 discriminator 1
	vcvtsi2sd	%esi, %xmm1, %xmm1
	.loc 3 253 0 discriminator 1
	leal	(%rsi,%rcx), %edx
	.loc 3 313 0 discriminator 1
	andl	%r13d, %edx
	addl	-4(%rsp), %edx
	andl	%r13d, %edx
	movl	%edx, %eax
	sall	$16, %eax
	orl	%edx, %eax
	andl	$50331903, %eax
	vaddsd	.LC2(%rip), %xmm1, %xmm1
	movl	%eax, %edx
	sall	$8, %edx
	orl	%eax, %edx
	andl	$50393103, %edx
	movl	%edx, %eax
	sall	$4, %eax
	vsubsd	%xmm2, %xmm1, %xmm1
	orl	%edx, %eax
	andl	$51130563, %eax
	leal	0(,%rax,4), %edx
	vmovddup	%xmm1, %xmm1
	orl	%eax, %edx
	andl	$153391689, %edx
	sall	$2, %edx
	vcvtpd2psx	%xmm1, %xmm1
	movl	%edx, %r8d
	orl	%r11d, %r8d
.LBB1607:
.LBB1579:
.LBB1551:
.LBB1463:
.LBB1353:
.LBB1305:
.LBB1259:
	.loc 3 29 0 discriminator 1
	movl	%r8d, %r14d
.LBE1259:
.LBE1305:
.LBE1353:
.LBE1463:
.LBE1551:
.LBE1579:
.LBE1607:
	.loc 3 313 0 discriminator 1
	vandps	%xmm10, %xmm1, %xmm1
	vucomiss	%xmm1, %xmm3
	setae	%al
.LBB1608:
.LBB1580:
.LBB1552:
.LBB1464:
.LBB1465:
	.loc 4 41 0 discriminator 1
	vucomiss	%xmm1, %xmm4
	setae	%r9b
.LBE1465:
.LBE1464:
.LBB1484:
.LBB1354:
.LBB1306:
.LBB1260:
	.loc 3 29 0 discriminator 1
	orl	%r12d, %r14d
	orl	%r10d, %edx
.LVL356:
.LBE1260:
.LBE1306:
.LBE1354:
.LBE1484:
.LBB1485:
.LBB1398:
	.loc 4 37 0 discriminator 1
	vucomiss	%xmm8, %xmm3
.LBE1398:
.LBE1485:
.LBB1486:
.LBB1355:
	.loc 3 166 0 discriminator 1
	movslq	%r14d, %r14
.LBE1355:
.LBE1486:
	.loc 3 332 0 discriminator 1
	vmulsd	(%rdi,%r14,8), %xmm12, %xmm13
.LVL357:
.LBB1487:
.LBB1399:
	.loc 4 37 0 discriminator 1
	setae	%r14b
	jae	.L256
	.loc 4 41 0
	vucomiss	%xmm8, %xmm4
	vmovapd	%xmm5, %xmm14
	jb	.L257
	.loc 4 43 0
	vsubss	%xmm8, %xmm4, %xmm14
.LVL358:
	vmulss	%xmm3, %xmm14, %xmm15
	vmulss	%xmm15, %xmm14, %xmm14
.LVL359:
	vunpcklps	%xmm14, %xmm14, %xmm14
	vcvtps2pd	%xmm14, %xmm14
.L257:
.LBE1399:
.LBE1487:
.LBB1488:
.LBB1466:
	.loc 4 37 0
	testb	%al, %al
.LBE1466:
.LBE1488:
	.loc 3 332 0
	vmulsd	%xmm14, %xmm13, %xmm14
.LVL360:
.LBB1489:
.LBB1467:
	.loc 4 37 0
	je	.L259
.LVL361:
	.loc 4 39 0
	vmulss	%xmm1, %xmm1, %xmm13
	vmovss	.LC16(%rip), %xmm15
	vsubss	%xmm13, %xmm15, %xmm13
	.loc 4 37 0
	vunpcklps	%xmm13, %xmm13, %xmm13
	vcvtps2pd	%xmm13, %xmm13
.LVL362:
.L260:
.LBE1467:
.LBE1489:
	.loc 3 332 0
	vmulsd	%xmm13, %xmm14, %xmm13
.LBB1490:
.LBB1356:
.LBB1307:
.LBB1261:
	.loc 3 29 0
	movl	%edx, %r15d
	orl	%r12d, %r15d
.LBE1261:
.LBE1307:
.LBE1356:
.LBE1490:
.LBB1491:
.LBB1400:
	.loc 4 37 0
	testb	%r14b, %r14b
.LBE1400:
.LBE1491:
.LBB1492:
.LBB1357:
	.loc 3 166 0
	movslq	%r15d, %r15
.LBE1357:
.LBE1492:
	.loc 3 332 0
	vaddsd	%xmm0, %xmm13, %xmm0
.LVL363:
	vmulsd	(%rdi,%r15,8), %xmm11, %xmm13
.LVL364:
.LBB1493:
.LBB1401:
	.loc 4 37 0
	jne	.L261
	.loc 4 41 0
	vucomiss	%xmm8, %xmm4
	vmovapd	%xmm5, %xmm14
	jb	.L262
	.loc 4 43 0
	vsubss	%xmm8, %xmm4, %xmm14
.LVL365:
	vmulss	%xmm3, %xmm14, %xmm15
	vmulss	%xmm15, %xmm14, %xmm14
.LVL366:
	vunpcklps	%xmm14, %xmm14, %xmm14
	vcvtps2pd	%xmm14, %xmm14
.L262:
.LBE1401:
.LBE1493:
.LBB1494:
.LBB1468:
	.loc 4 37 0
	testb	%al, %al
.LBE1468:
.LBE1494:
	.loc 3 332 0
	vmulsd	%xmm14, %xmm13, %xmm14
.LVL367:
.LBB1495:
.LBB1469:
	.loc 4 37 0
	je	.L264
.LVL368:
	.loc 4 39 0
	vmulss	%xmm1, %xmm1, %xmm13
	vmovss	.LC16(%rip), %xmm15
	vsubss	%xmm13, %xmm15, %xmm13
	.loc 4 37 0
	vunpcklps	%xmm13, %xmm13, %xmm13
	vcvtps2pd	%xmm13, %xmm13
.LVL369:
.L265:
.LBE1469:
.LBE1495:
.LBB1496:
.LBB1358:
.LBB1308:
.LBB1262:
	.loc 3 29 0
	movl	%r8d, %r14d
.LBE1262:
.LBE1308:
.LBE1358:
.LBE1496:
	.loc 3 332 0
	vmulsd	%xmm13, %xmm14, %xmm13
.LBB1497:
.LBB1359:
.LBB1309:
.LBB1263:
	.loc 3 29 0
	orl	%ebp, %r14d
.LBE1263:
.LBE1309:
.LBE1359:
.LBE1497:
.LBB1498:
.LBB1402:
	.loc 4 37 0
	vucomiss	%xmm7, %xmm3
.LBE1402:
.LBE1498:
.LBB1499:
.LBB1360:
	.loc 3 166 0
	movslq	%r14d, %r14
.LBE1360:
.LBE1499:
	.loc 3 332 0
	vaddsd	%xmm13, %xmm0, %xmm13
.LVL370:
	vmulsd	(%rdi,%r14,8), %xmm12, %xmm0
.LVL371:
.LBB1500:
.LBB1403:
	.loc 4 37 0
	setae	%r14b
	jae	.L266
	.loc 4 41 0
	vucomiss	%xmm7, %xmm4
	vmovapd	%xmm5, %xmm14
	jb	.L267
	.loc 4 43 0
	vsubss	%xmm7, %xmm4, %xmm14
.LVL372:
	vmulss	%xmm3, %xmm14, %xmm15
	vmulss	%xmm15, %xmm14, %xmm14
.LVL373:
	vunpcklps	%xmm14, %xmm14, %xmm14
	vcvtps2pd	%xmm14, %xmm14
.L267:
.LBE1403:
.LBE1500:
.LBB1501:
.LBB1470:
	.loc 4 37 0
	testb	%al, %al
.LBE1470:
.LBE1501:
	.loc 3 332 0
	vmulsd	%xmm14, %xmm0, %xmm14
.LVL374:
.LBB1502:
.LBB1471:
	.loc 4 37 0
	je	.L269
.LVL375:
	.loc 4 39 0
	vmulss	%xmm1, %xmm1, %xmm0
	vmovss	.LC16(%rip), %xmm15
	vsubss	%xmm0, %xmm15, %xmm0
	.loc 4 37 0
	vunpcklps	%xmm0, %xmm0, %xmm0
	vcvtps2pd	%xmm0, %xmm0
.LVL376:
.L270:
.LBE1471:
.LBE1502:
	.loc 3 332 0
	vmulsd	%xmm0, %xmm14, %xmm0
.LBB1503:
.LBB1361:
.LBB1310:
.LBB1264:
	.loc 3 29 0
	movl	%edx, %r15d
	orl	%ebp, %r15d
.LBE1264:
.LBE1310:
.LBE1361:
.LBE1503:
.LBB1504:
.LBB1404:
	.loc 4 37 0
	testb	%r14b, %r14b
.LBE1404:
.LBE1504:
.LBB1505:
.LBB1362:
	.loc 3 166 0
	movslq	%r15d, %r15
.LBE1362:
.LBE1505:
	.loc 3 332 0
	vaddsd	%xmm0, %xmm13, %xmm13
.LVL377:
	vmulsd	(%rdi,%r15,8), %xmm11, %xmm0
.LVL378:
.LBB1506:
.LBB1405:
	.loc 4 37 0
	jne	.L271
	.loc 4 41 0
	vucomiss	%xmm7, %xmm4
	vmovapd	%xmm5, %xmm14
	jb	.L272
	.loc 4 43 0
	vsubss	%xmm7, %xmm4, %xmm14
.LVL379:
	vmulss	%xmm3, %xmm14, %xmm15
	vmulss	%xmm15, %xmm14, %xmm14
.LVL380:
	vunpcklps	%xmm14, %xmm14, %xmm14
	vcvtps2pd	%xmm14, %xmm14
.L272:
.LBE1405:
.LBE1506:
.LBB1507:
.LBB1472:
	.loc 4 37 0
	testb	%al, %al
.LBE1472:
.LBE1507:
	.loc 3 332 0
	vmulsd	%xmm14, %xmm0, %xmm14
.LVL381:
.LBB1508:
.LBB1473:
	.loc 4 37 0
	je	.L274
.LVL382:
	.loc 4 39 0
	vmulss	%xmm1, %xmm1, %xmm0
	vmovss	.LC16(%rip), %xmm15
	vsubss	%xmm0, %xmm15, %xmm0
	.loc 4 37 0
	vunpcklps	%xmm0, %xmm0, %xmm0
	vcvtps2pd	%xmm0, %xmm0
.LVL383:
.L275:
.LBE1473:
.LBE1508:
	.loc 3 332 0
	vmulsd	%xmm0, %xmm14, %xmm0
.LBB1509:
.LBB1363:
.LBB1311:
.LBB1265:
	.loc 3 29 0
	orl	%ebx, %r8d
.LBE1265:
.LBE1311:
.LBE1363:
.LBE1509:
.LBB1510:
.LBB1406:
	.loc 4 37 0
	vucomiss	%xmm6, %xmm3
.LBE1406:
.LBE1510:
.LBB1511:
.LBB1364:
	.loc 3 166 0
	movslq	%r8d, %r8
.LBE1364:
.LBE1511:
	.loc 3 332 0
	vmulsd	(%rdi,%r8,8), %xmm12, %xmm14
	vaddsd	%xmm0, %xmm13, %xmm0
.LVL384:
.LBB1512:
.LBB1407:
	.loc 4 37 0
	setae	%r8b
	jb	.L304
.LVL385:
	.loc 4 39 0
	vmulss	%xmm6, %xmm6, %xmm13
	vmovss	.LC16(%rip), %xmm15
	vsubss	%xmm13, %xmm15, %xmm13
	.loc 4 43 0
	vunpcklps	%xmm13, %xmm13, %xmm13
	vcvtps2pd	%xmm13, %xmm13
.L247:
.LBE1407:
.LBE1512:
.LBB1513:
.LBB1474:
	.loc 4 37 0
	testb	%al, %al
.LBE1474:
.LBE1513:
	.loc 3 332 0
	vmulsd	%xmm13, %xmm14, %xmm14
.LVL386:
.LBB1514:
.LBB1475:
	.loc 4 37 0
	jne	.L249
	.loc 4 41 0
	testb	%r9b, %r9b
	vmovapd	%xmm5, %xmm13
	je	.L250
	.loc 4 43 0
	vsubss	%xmm1, %xmm4, %xmm13
.LVL387:
	vmulss	%xmm3, %xmm13, %xmm15
	vmulss	%xmm15, %xmm13, %xmm13
.LVL388:
	vunpcklps	%xmm13, %xmm13, %xmm13
	vcvtps2pd	%xmm13, %xmm13
.L250:
.LBE1475:
.LBE1514:
	.loc 3 332 0
	vmulsd	%xmm13, %xmm14, %xmm13
.LBB1515:
.LBB1365:
.LBB1312:
.LBB1266:
	.loc 3 29 0
	orl	%ebx, %edx
.LBE1266:
.LBE1312:
.LBE1365:
.LBE1515:
.LBB1516:
.LBB1408:
	.loc 4 37 0
	testb	%r8b, %r8b
.LBE1408:
.LBE1516:
.LBB1517:
.LBB1366:
	.loc 3 166 0
	movslq	%edx, %rdx
.LBE1366:
.LBE1517:
	.loc 3 332 0
	vaddsd	%xmm0, %xmm13, %xmm0
.LVL389:
	vmulsd	(%rdi,%rdx,8), %xmm11, %xmm13
.LVL390:
.LBB1518:
.LBB1409:
	.loc 4 37 0
	jne	.L251
	.loc 4 41 0
	vucomiss	%xmm6, %xmm4
	vmovapd	%xmm5, %xmm14
	jb	.L252
	.loc 4 43 0
	vsubss	%xmm6, %xmm4, %xmm14
.LVL391:
	vmulss	%xmm3, %xmm14, %xmm15
	vmulss	%xmm15, %xmm14, %xmm14
.LVL392:
	vunpcklps	%xmm14, %xmm14, %xmm14
	vcvtps2pd	%xmm14, %xmm14
.L252:
.LBE1409:
.LBE1518:
.LBB1519:
.LBB1476:
	.loc 4 37 0
	testb	%al, %al
.LBE1476:
.LBE1519:
	.loc 3 332 0
	vmulsd	%xmm14, %xmm13, %xmm14
.LVL393:
.LBB1520:
.LBB1477:
	.loc 4 37 0
	jne	.L254
	.loc 4 41 0
	testb	%r9b, %r9b
	vmovapd	%xmm5, %xmm13
	je	.L255
	.loc 4 43 0
	vsubss	%xmm1, %xmm4, %xmm1
.LVL394:
	vmulss	%xmm3, %xmm1, %xmm13
	vmulss	%xmm13, %xmm1, %xmm1
.LVL395:
	vunpcklps	%xmm1, %xmm1, %xmm1
	vcvtps2pd	%xmm1, %xmm13
.L255:
.LBE1477:
.LBE1520:
	.loc 3 332 0
	vmulsd	%xmm13, %xmm14, %xmm13
.LBE1552:
.LBE1580:
.LBE1608:
	.loc 3 313 0
	addl	$1, %esi
	cmpl	$2, %esi
.LBB1609:
.LBB1581:
.LBB1553:
	.loc 3 332 0
	vaddsd	%xmm13, %xmm0, %xmm0
.LVL396:
.LBE1553:
.LBE1581:
.LBE1609:
	.loc 3 313 0
	jne	.L241
.LBE1634:
.LBE1212:
.LBE1211:
	.loc 3 434 0
	popq	%rbx
	.cfi_remember_state
	.cfi_def_cfa_offset 48
	popq	%rbp
	.cfi_def_cfa_offset 40
	popq	%r12
	.cfi_def_cfa_offset 32
	popq	%r13
	.cfi_def_cfa_offset 24
	popq	%r14
	.cfi_def_cfa_offset 16
	popq	%r15
	.cfi_def_cfa_offset 8
	ret
.LVL397:
	.p2align 4,,10
	.p2align 3
.L254:
	.cfi_restore_state
.LBB1689:
.LBB1684:
.LBB1635:
.LBB1610:
.LBB1582:
.LBB1554:
.LBB1521:
.LBB1478:
	.loc 4 39 0
	vmulss	%xmm1, %xmm1, %xmm1
.LVL398:
	vmovss	.LC16(%rip), %xmm15
	vsubss	%xmm1, %xmm15, %xmm13
.LVL399:
	.loc 4 43 0
	vunpcklps	%xmm13, %xmm13, %xmm13
.LVL400:
	vcvtps2pd	%xmm13, %xmm13
	jmp	.L255
.LVL401:
	.p2align 4,,10
	.p2align 3
.L251:
.LBE1478:
.LBE1521:
.LBB1522:
.LBB1410:
	.loc 4 39 0
	vmulss	%xmm6, %xmm6, %xmm14
	vmovss	.LC16(%rip), %xmm15
	vsubss	%xmm14, %xmm15, %xmm14
	.loc 4 43 0
	vunpcklps	%xmm14, %xmm14, %xmm14
	vcvtps2pd	%xmm14, %xmm14
	jmp	.L252
.LVL402:
	.p2align 4,,10
	.p2align 3
.L249:
.LBE1410:
.LBE1522:
.LBB1523:
.LBB1479:
	.loc 4 39 0
	vmulss	%xmm1, %xmm1, %xmm13
	vmovss	.LC16(%rip), %xmm15
	vsubss	%xmm13, %xmm15, %xmm13
	.loc 4 43 0
	vunpcklps	%xmm13, %xmm13, %xmm13
	vcvtps2pd	%xmm13, %xmm13
	jmp	.L250
.LVL403:
	.p2align 4,,10
	.p2align 3
.L304:
.LBE1479:
.LBE1523:
.LBB1524:
.LBB1411:
	.loc 4 41 0
	vucomiss	%xmm6, %xmm4
	vmovapd	%xmm5, %xmm13
	jb	.L247
	.loc 4 43 0
	vsubss	%xmm6, %xmm4, %xmm13
.LVL404:
	vmulss	%xmm3, %xmm13, %xmm15
	vmulss	%xmm15, %xmm13, %xmm13
.LVL405:
	vunpcklps	%xmm13, %xmm13, %xmm13
	vcvtps2pd	%xmm13, %xmm13
	jmp	.L247
.LVL406:
	.p2align 4,,10
	.p2align 3
.L274:
.LBE1411:
.LBE1524:
.LBB1525:
.LBB1480:
	.loc 4 41 0
	testb	%r9b, %r9b
	vmovapd	%xmm5, %xmm0
	je	.L275
	.loc 4 43 0
	vsubss	%xmm1, %xmm4, %xmm0
.LVL407:
	vmulss	%xmm3, %xmm0, %xmm15
	vmulss	%xmm15, %xmm0, %xmm0
.LVL408:
	vunpcklps	%xmm0, %xmm0, %xmm0
	vcvtps2pd	%xmm0, %xmm0
	jmp	.L275
.LVL409:
	.p2align 4,,10
	.p2align 3
.L271:
.LBE1480:
.LBE1525:
.LBB1526:
.LBB1412:
	.loc 4 39 0
	vmulss	%xmm7, %xmm7, %xmm14
	vmovss	.LC16(%rip), %xmm15
	vsubss	%xmm14, %xmm15, %xmm14
	.loc 4 43 0
	vunpcklps	%xmm14, %xmm14, %xmm14
	vcvtps2pd	%xmm14, %xmm14
	jmp	.L272
.LVL410:
	.p2align 4,,10
	.p2align 3
.L269:
.LBE1412:
.LBE1526:
.LBB1527:
.LBB1481:
	.loc 4 41 0
	testb	%r9b, %r9b
	vmovapd	%xmm5, %xmm0
	je	.L270
	.loc 4 43 0
	vsubss	%xmm1, %xmm4, %xmm0
.LVL411:
	vmulss	%xmm3, %xmm0, %xmm15
	vmulss	%xmm15, %xmm0, %xmm0
.LVL412:
	vunpcklps	%xmm0, %xmm0, %xmm0
	vcvtps2pd	%xmm0, %xmm0
	jmp	.L270
.LVL413:
	.p2align 4,,10
	.p2align 3
.L266:
.LBE1481:
.LBE1527:
.LBB1528:
.LBB1413:
	.loc 4 39 0
	vmulss	%xmm7, %xmm7, %xmm14
	vmovss	.LC16(%rip), %xmm15
	vsubss	%xmm14, %xmm15, %xmm14
	.loc 4 43 0
	vunpcklps	%xmm14, %xmm14, %xmm14
	vcvtps2pd	%xmm14, %xmm14
	jmp	.L267
.LVL414:
	.p2align 4,,10
	.p2align 3
.L264:
.LBE1413:
.LBE1528:
.LBB1529:
.LBB1482:
	.loc 4 41 0
	testb	%r9b, %r9b
	vmovapd	%xmm5, %xmm13
	je	.L265
	.loc 4 43 0
	vsubss	%xmm1, %xmm4, %xmm13
.LVL415:
	vmulss	%xmm3, %xmm13, %xmm15
	vmulss	%xmm15, %xmm13, %xmm13
.LVL416:
	vunpcklps	%xmm13, %xmm13, %xmm13
	vcvtps2pd	%xmm13, %xmm13
	jmp	.L265
.LVL417:
	.p2align 4,,10
	.p2align 3
.L261:
.LBE1482:
.LBE1529:
.LBB1530:
.LBB1414:
	.loc 4 39 0
	vmulss	%xmm8, %xmm8, %xmm14
	vmovss	.LC16(%rip), %xmm15
	vsubss	%xmm14, %xmm15, %xmm14
	.loc 4 43 0
	vunpcklps	%xmm14, %xmm14, %xmm14
	vcvtps2pd	%xmm14, %xmm14
	jmp	.L262
.LVL418:
	.p2align 4,,10
	.p2align 3
.L259:
.LBE1414:
.LBE1530:
.LBB1531:
.LBB1483:
	.loc 4 41 0
	testb	%r9b, %r9b
	vmovapd	%xmm5, %xmm13
	je	.L260
	.loc 4 43 0
	vsubss	%xmm1, %xmm4, %xmm13
.LVL419:
	vmulss	%xmm3, %xmm13, %xmm15
	vmulss	%xmm15, %xmm13, %xmm13
.LVL420:
	vunpcklps	%xmm13, %xmm13, %xmm13
	vcvtps2pd	%xmm13, %xmm13
	jmp	.L260
.LVL421:
	.p2align 4,,10
	.p2align 3
.L256:
.LBE1483:
.LBE1531:
.LBB1532:
.LBB1415:
	.loc 4 39 0
	vmulss	%xmm8, %xmm8, %xmm14
	vsubss	%xmm14, %xmm9, %xmm14
	.loc 4 43 0
	vunpcklps	%xmm14, %xmm14, %xmm14
	vcvtps2pd	%xmm14, %xmm14
	jmp	.L257
.LVL422:
	.p2align 4,,10
	.p2align 3
.L236:
.LBE1415:
.LBE1532:
.LBE1554:
.LBE1582:
.LBE1610:
.LBE1635:
.LBB1636:
.LBB1637:
	.loc 3 270 0
	vxorpd	%xmm5, %xmm5, %xmm5
.LBB1638:
.LBB1639:
	.loc 4 21 0
	vmovss	.LC11(%rip), %xmm10
	.loc 4 23 0
	vmovss	.LC13(%rip), %xmm3
.LBE1639:
.LBE1638:
.LBE1637:
.LBE1636:
.LBB1669:
.LBB1611:
.LBB1583:
.LBB1555:
	.loc 3 332 0
	movl	80(%rdi), %ebx
.LBE1555:
.LBE1583:
.LBE1611:
.LBE1669:
.LBB1670:
.LBB1660:
.LBB1646:
.LBB1640:
	.loc 4 23 0
	vxorps	%xmm2, %xmm2, %xmm2
.LVL423:
.LBE1640:
.LBE1646:
.LBE1660:
.LBE1670:
.LBB1671:
.LBB1612:
.LBB1584:
.LBB1556:
	.loc 3 332 0
	movl	76(%rdi), %r9d
.LBE1556:
.LBE1584:
.LBE1612:
.LBE1671:
.LBB1672:
.LBB1661:
	.loc 3 270 0
	vsubsd	%xmm0, %xmm5, %xmm1
.LVL424:
.LBE1661:
.LBE1672:
.LBB1673:
.LBB1613:
.LBB1585:
.LBB1557:
	.loc 3 332 0
	movl	72(%rdi), %r8d
	movq	16(%rdi), %rdi
.LVL425:
	leal	-1(%rbx), %r11d
	leal	-1(%r9), %r10d
	andl	%r11d, %ecx
.LVL426:
	leal	-1(%r8), %eax
.LBE1557:
.LBE1585:
.LBE1613:
.LBE1673:
.LBB1674:
.LBB1662:
	.loc 3 276 0
	vmovddup	%xmm1, %xmm1
.LBE1662:
.LBE1674:
.LBB1675:
.LBB1614:
.LBB1586:
.LBB1558:
	.loc 3 332 0
	addl	%ebx, %ecx
	andl	%r10d, %edx
.LVL427:
	andl	%r11d, %ecx
	addl	%r9d, %edx
	imull	%r9d, %ecx
	andl	%r10d, %edx
.LBE1558:
.LBE1586:
.LBE1614:
.LBE1675:
.LBB1676:
.LBB1663:
	.loc 3 276 0
	vcvtpd2psx	%xmm1, %xmm1
.LBE1663:
.LBE1676:
.LBE1684:
.LBE1689:
	.loc 3 434 0
	popq	%rbx
	.cfi_def_cfa_offset 48
.LBB1690:
.LBB1685:
.LBB1677:
.LBB1615:
.LBB1587:
.LBB1559:
	.loc 3 332 0
	addl	%ecx, %edx
	movl	%r8d, %ecx
	imull	%edx, %ecx
.LBE1559:
.LBE1587:
.LBE1615:
.LBE1677:
.LBB1678:
.LBB1664:
.LBB1647:
.LBB1648:
	.loc 3 107 0
	movl	%esi, %edx
.LBE1648:
.LBE1647:
	.loc 3 268 0
	addl	$1, %esi
.LVL428:
.LBB1652:
.LBB1649:
	.loc 3 107 0
	andl	%eax, %edx
.LVL429:
	andl	%eax, %esi
.LVL430:
	addl	%r8d, %edx
	addl	%esi, %r8d
	andl	%eax, %edx
.LBE1649:
.LBE1652:
.LBE1664:
.LBE1678:
.LBB1679:
.LBB1616:
.LBB1588:
.LBB1560:
	.loc 3 332 0
	movslq	%ecx, %rcx
.LBE1560:
.LBE1588:
.LBE1616:
.LBE1679:
.LBB1680:
.LBB1665:
.LBB1653:
.LBB1650:
	.loc 3 107 0
	andl	%eax, %r8d
	.loc 3 113 0
	movslq	%edx, %rdx
	movslq	%r8d, %r8
.LBE1650:
.LBE1653:
.LBB1654:
.LBB1641:
	.loc 4 21 0
	vandps	%xmm10, %xmm1, %xmm1
.LVL431:
.LBE1641:
.LBE1654:
.LBB1655:
.LBB1651:
	.loc 3 113 0
	addq	%rcx, %rdx
	addq	%r8, %rcx
.LBE1651:
.LBE1655:
.LBE1665:
.LBE1680:
.LBE1685:
.LBE1690:
	.loc 3 434 0
	popq	%rbp
	.cfi_def_cfa_offset 40
	popq	%r12
	.cfi_def_cfa_offset 32
.LBB1691:
.LBB1686:
.LBB1681:
.LBB1666:
.LBB1656:
.LBB1642:
	.loc 4 23 0
	vsubss	%xmm1, %xmm3, %xmm4
	vcmpngess	%xmm1, %xmm3, %xmm1
.LVL432:
.LBE1642:
.LBE1656:
.LBE1666:
.LBE1681:
.LBE1686:
.LBE1691:
	.loc 3 434 0
	popq	%r13
	.cfi_def_cfa_offset 24
.LBB1692:
.LBB1687:
.LBB1682:
.LBB1667:
.LBB1657:
.LBB1643:
	.loc 4 23 0
	vandps	%xmm1, %xmm2, %xmm2
	vandnps	%xmm3, %xmm1, %xmm1
.LBE1643:
.LBE1657:
.LBE1667:
.LBE1682:
.LBE1687:
.LBE1692:
	.loc 3 434 0
	popq	%r14
	.cfi_def_cfa_offset 16
	popq	%r15
	.cfi_def_cfa_offset 8
.LBB1693:
.LBB1688:
.LBB1683:
.LBB1668:
.LBB1658:
.LBB1644:
	.loc 4 23 0
	vorps	%xmm2, %xmm1, %xmm2
	vmulss	%xmm2, %xmm4, %xmm1
	vxorps	%xmm2, %xmm2, %xmm2
.LBE1644:
.LBE1658:
	.loc 3 276 0
	vunpcklps	%xmm1, %xmm1, %xmm1
	vcvtps2pd	%xmm1, %xmm1
	vmulsd	(%rdi,%rdx,8), %xmm1, %xmm1
	vaddsd	%xmm5, %xmm1, %xmm5
.LVL433:
	.loc 3 270 0
	vmovsd	.LC12(%rip), %xmm1
	vsubsd	%xmm0, %xmm1, %xmm0
.LVL434:
	.loc 3 276 0
	vmovddup	%xmm0, %xmm1
	vcvtpd2psx	%xmm1, %xmm1
.LBB1659:
.LBB1645:
	.loc 4 21 0
	vandps	%xmm10, %xmm1, %xmm1
.LVL435:
	.loc 4 23 0
	vsubss	%xmm1, %xmm3, %xmm0
	vcmpngess	%xmm1, %xmm3, %xmm1
.LVL436:
	vandps	%xmm1, %xmm2, %xmm2
	vandnps	%xmm3, %xmm1, %xmm1
	vorps	%xmm2, %xmm1, %xmm2
	vmulss	%xmm2, %xmm0, %xmm0
.LBE1645:
.LBE1659:
	.loc 3 276 0
	vunpcklps	%xmm0, %xmm0, %xmm0
	vcvtps2pd	%xmm0, %xmm0
	vmulsd	(%rdi,%rcx,8), %xmm0, %xmm0
	vaddsd	%xmm5, %xmm0, %xmm0
.LVL437:
.LBE1668:
.LBE1683:
.LBE1688:
.LBE1693:
	.loc 3 434 0
	ret
	.cfi_endproc
.LFE2312:
	.size	_ZN12FieldDataCPU7intrpETILi0EL15FieldData_deriv0EEEddddiii, .-_ZN12FieldDataCPU7intrpETILi0EL15FieldData_deriv0EEEddddiii
	.section	.text._ZN12FieldDataCPU7intrpETILi1EL15FieldData_deriv0EEEddddiii,"axG",@progbits,_ZN12FieldDataCPU7intrpETILi1EL15FieldData_deriv0EEEddddiii,comdat
	.align 2
	.p2align 4,,15
	.weak	_ZN12FieldDataCPU7intrpETILi1EL15FieldData_deriv0EEEddddiii
	.type	_ZN12FieldDataCPU7intrpETILi1EL15FieldData_deriv0EEEddddiii, @function
_ZN12FieldDataCPU7intrpETILi1EL15FieldData_deriv0EEEddddiii:
.LFB2313:
	.loc 3 253 0
	.cfi_startproc
.LVL438:
	pushq	%r15
	.cfi_def_cfa_offset 16
	.cfi_offset 15, -16
.LBB1711:
.LBB1712:
	.loc 3 296 0
	vxorpd	%xmm12, %xmm12, %xmm12
.LBE1712:
.LBE1711:
	.loc 3 253 0
	pushq	%r14
	.cfi_def_cfa_offset 24
	.cfi_offset 14, -24
	pushq	%r13
	.cfi_def_cfa_offset 32
	.cfi_offset 13, -32
	pushq	%r12
	.cfi_def_cfa_offset 40
	.cfi_offset 12, -40
	pushq	%rbp
	.cfi_def_cfa_offset 48
	.cfi_offset 6, -48
	pushq	%rbx
	.cfi_def_cfa_offset 56
	.cfi_offset 3, -56
.LBB1959:
.LBB1956:
	.loc 3 257 0
	cmpl	$1, 92(%rdi)
.LBE1956:
.LBE1959:
	.loc 3 253 0
	vmovsd	%xmm2, -16(%rsp)
	movl	%ecx, -8(%rsp)
.LBB1960:
.LBB1957:
	.loc 3 257 0
	je	.L306
	movl	72(%rdi), %r10d
	leal	-1(%rsi), %r11d
	movl	80(%rdi), %ecx
.LVL439:
	vmovsd	.LC17(%rip), %xmm9
	vmovss	.LC11(%rip), %xmm13
	vmovss	.LC15(%rip), %xmm5
	movl	76(%rdi), %r8d
	leal	-1(%r10), %r9d
	vsubsd	%xmm0, %xmm9, %xmm9
	movl	%ecx, -20(%rsp)
	subl	$1, %ecx
	vmovsd	.LC2(%rip), %xmm14
	andl	%r9d, %r11d
	movl	%ecx, -32(%rsp)
	leal	-1(%r8), %eax
	addl	%r10d, %r11d
	vsubsd	%xmm0, %xmm14, %xmm8
	andl	%r9d, %r11d
	vmovddup	%xmm9, %xmm9
	movl	%r11d, %ecx
	vmovsd	.LC18(%rip), %xmm7
	sall	$16, %ecx
.LBB1713:
.LBB1714:
.LBB1715:
.LBB1716:
.LBB1717:
.LBB1718:
	.loc 4 41 0
	vmovss	.LC14(%rip), %xmm4
.LBE1718:
.LBE1717:
.LBE1716:
.LBE1715:
.LBE1714:
.LBE1713:
	.loc 3 257 0
	orl	%r11d, %ecx
	vmovddup	%xmm8, %xmm8
	andl	$50331903, %ecx
	vsubsd	%xmm0, %xmm7, %xmm0
.LVL440:
	movl	%ecx, %r11d
	vmovss	.LC13(%rip), %xmm3
	vcvtpd2psx	%xmm9, %xmm9
	sall	$8, %r11d
	orl	%ecx, %r11d
	vmovddup	%xmm0, %xmm7
	andl	$50393103, %r11d
.LBB1941:
.LBB1923:
.LBB1905:
.LBB1887:
	.loc 3 367 0
	vsubsd	%xmm1, %xmm12, %xmm0
.LBE1887:
.LBE1905:
.LBE1923:
.LBE1941:
	.loc 3 257 0
	movl	%r11d, %ecx
.LBB1942:
.LBB1924:
.LBB1906:
.LBB1888:
.LBB1742:
.LBB1719:
	.loc 4 41 0
	vmovapd	%xmm12, %xmm2
.LVL441:
.LBE1719:
.LBE1742:
.LBE1888:
.LBE1906:
.LBE1924:
.LBE1942:
	.loc 3 257 0
	sall	$4, %ecx
.LBB1943:
.LBB1925:
.LBB1907:
.LBB1889:
.LBB1743:
.LBB1720:
	.loc 4 39 0
	vmovss	.LC16(%rip), %xmm6
.LBE1720:
.LBE1743:
.LBE1889:
.LBE1907:
.LBE1925:
.LBE1943:
	.loc 3 257 0
	orl	%r11d, %ecx
	andl	$51130563, %ecx
.LBB1944:
.LBB1926:
.LBB1908:
.LBB1890:
	.loc 3 372 0
	vmovddup	%xmm0, %xmm0
.LBE1890:
.LBE1908:
.LBE1926:
.LBE1944:
	.loc 3 257 0
	leal	0(,%rcx,4), %r11d
	vandps	%xmm13, %xmm9, %xmm9
	vcvtpd2psx	%xmm8, %xmm8
	orl	%ecx, %r11d
	movq	24(%rdi), %rcx
	andl	$153391689, %r11d
	vucomiss	%xmm9, %xmm5
	movl	%r11d, -44(%rsp)
	movl	%esi, %r11d
	vcvtpd2psx	%xmm7, %xmm7
	setae	%r14b
	andl	%r9d, %r11d
	addl	%r10d, %r11d
	vandps	%xmm13, %xmm8, %xmm8
	andl	%r9d, %r11d
	movl	%r11d, %edi
.LVL442:
	sall	$16, %edi
	orl	%r11d, %edi
	andl	$50331903, %edi
	vandps	%xmm13, %xmm7, %xmm7
	movl	%edi, %r11d
	sall	$8, %r11d
	orl	%edi, %r11d
	andl	$50393103, %r11d
	movl	%r11d, %edi
	sall	$4, %edi
	orl	%r11d, %edi
	andl	$51130563, %edi
	leal	0(,%rdi,4), %r11d
.LBB1945:
.LBB1927:
.LBB1909:
.LBB1891:
	.loc 3 372 0
	vcvtpd2psx	%xmm0, %xmm0
.LBE1891:
.LBE1909:
.LBE1927:
.LBE1945:
	.loc 3 257 0
	orl	%edi, %r11d
	andl	$153391689, %r11d
	vucomiss	%xmm8, %xmm5
	movl	%r11d, -40(%rsp)
	setae	%r13b
	addl	$1, %esi
.LVL443:
	andl	%r9d, %esi
.LVL444:
.LBB1946:
.LBB1928:
.LBB1910:
.LBB1892:
.LBB1744:
.LBB1745:
	.loc 4 21 0
	vandps	%xmm13, %xmm0, %xmm0
.LBE1745:
.LBE1744:
.LBE1892:
.LBE1910:
.LBE1928:
.LBE1946:
	.loc 3 257 0
	addl	%esi, %r10d
	andl	%r9d, %r10d
	movl	%r10d, %r9d
.LBB1947:
.LBB1929:
.LBB1911:
.LBB1893:
.LBB1762:
.LBB1746:
	.loc 4 21 0
	vmovss	%xmm0, -28(%rsp)
	.loc 4 23 0
	vsubss	%xmm0, %xmm3, %xmm11
.LBE1746:
.LBE1762:
.LBE1893:
.LBE1911:
.LBE1929:
.LBE1947:
	.loc 3 257 0
	sall	$16, %r9d
.LBB1948:
.LBB1930:
.LBB1912:
.LBB1894:
	.loc 3 367 0
	vmovsd	.LC12(%rip), %xmm0
.LBE1894:
.LBE1912:
.LBE1930:
.LBE1948:
	.loc 3 257 0
	orl	%r10d, %r9d
	andl	$50331903, %r9d
.LBB1949:
.LBB1931:
.LBB1913:
.LBB1895:
	.loc 3 367 0
	vsubsd	%xmm1, %xmm0, %xmm0
.LBE1895:
.LBE1913:
.LBE1931:
.LBE1949:
	.loc 3 257 0
	movl	%r9d, %edi
	sall	$8, %edi
	orl	%r9d, %edi
.LBB1950:
.LBB1932:
.LBB1914:
.LBB1896:
.LBB1763:
.LBB1764:
	.loc 3 159 0
	movl	%eax, %r9d
.LBE1764:
.LBE1763:
.LBE1896:
.LBE1914:
.LBE1932:
.LBE1950:
	.loc 3 257 0
	andl	$50393103, %edi
.LBB1951:
.LBB1933:
.LBB1915:
.LBB1897:
	.loc 3 372 0
	vmovddup	%xmm0, %xmm0
.LBE1897:
.LBE1915:
.LBE1933:
.LBE1951:
	.loc 3 257 0
	movl	%edi, %esi
	sall	$4, %esi
	orl	%edi, %esi
	andl	$51130563, %esi
	leal	0(,%rsi,4), %edi
.LBB1952:
.LBB1934:
.LBB1916:
.LBB1898:
	.loc 3 372 0
	vcvtpd2psx	%xmm0, %xmm0
.LBE1898:
.LBE1916:
.LBE1934:
.LBE1952:
	.loc 3 257 0
	orl	%esi, %edi
.LBB1953:
.LBB1935:
.LBB1917:
.LBB1899:
.LBB1797:
.LBB1721:
	.loc 4 41 0
	movl	$-1, %esi
.LBE1721:
.LBE1797:
.LBE1899:
.LBE1917:
.LBE1935:
.LBE1953:
	.loc 3 257 0
	andl	$153391689, %edi
	vucomiss	%xmm7, %xmm5
	movl	%edi, -36(%rsp)
	setae	%r12b
.LBB1954:
.LBB1936:
.LBB1918:
.LBB1900:
.LBB1798:
.LBB1722:
	.loc 4 41 0
	vucomiss	%xmm9, %xmm4
.LBE1722:
.LBE1798:
.LBB1799:
.LBB1747:
	.loc 4 21 0
	vandps	%xmm13, %xmm0, %xmm0
.LBE1747:
.LBE1799:
.LBB1800:
.LBB1723:
	.loc 4 41 0
	setae	-3(%rsp)
.LBE1723:
.LBE1800:
.LBB1801:
.LBB1748:
	.loc 4 23 0
	vsubss	%xmm0, %xmm3, %xmm10
	.loc 4 21 0
	vmovss	%xmm0, -24(%rsp)
.LBE1748:
.LBE1801:
.LBB1802:
.LBB1724:
	.loc 4 41 0
	vucomiss	%xmm8, %xmm4
	setae	-2(%rsp)
	vucomiss	%xmm7, %xmm4
	setae	-1(%rsp)
.LBE1724:
.LBE1802:
.LBB1803:
.LBB1781:
	.loc 3 159 0
	andl	%edx, %r9d
.LBE1781:
.LBE1803:
	.loc 3 364 0
	addl	$1, %edx
.LVL445:
.LBB1804:
.LBB1782:
	.loc 3 159 0
	andl	%eax, %edx
.LVL446:
	addl	%r8d, %r9d
.LBE1782:
.LBE1804:
.LBB1805:
.LBB1749:
	.loc 4 23 0
	xorl	%ebp, %ebp
.LBE1749:
.LBE1805:
.LBB1806:
.LBB1783:
	.loc 3 159 0
	addl	%r8d, %edx
	andl	%eax, %r9d
	andl	%eax, %edx
.LBB1765:
.LBB1766:
	.loc 3 19 0
	movl	%r9d, %edi
	movl	%edx, %eax
	sall	$16, %edi
	sall	$16, %eax
	orl	%r9d, %edi
	orl	%edx, %eax
	andl	$50331903, %edi
	andl	$50331903, %eax
	.loc 3 20 0
	movl	%edi, %r9d
	movl	%eax, %edx
	sall	$8, %r9d
	sall	$8, %edx
	orl	%edi, %r9d
	orl	%eax, %edx
	andl	$50393103, %r9d
	andl	$50393103, %edx
	.loc 3 21 0
	movl	%r9d, %edi
	movl	%edx, %eax
	sall	$4, %edi
	sall	$4, %eax
	orl	%r9d, %edi
	orl	%edx, %eax
	andl	$51130563, %edi
	andl	$51130563, %eax
	.loc 3 22 0
	leal	0(,%rdi,4), %r9d
	leal	0(,%rax,4), %r8d
	orl	%edi, %r9d
	orl	%eax, %r8d
	andl	$153391689, %r9d
	andl	$153391689, %r8d
	.loc 3 29 0
	addl	%r9d, %r9d
	addl	%r8d, %r8d
.LVL447:
.L307:
.LBE1766:
.LBE1765:
.LBE1783:
.LBE1806:
.LBE1900:
.LBE1918:
.LBE1936:
	.loc 3 356 0 discriminator 1
	vcvtsi2sd	%esi, %xmm0, %xmm0
	.loc 3 253 0 discriminator 1
	movl	-8(%rsp), %edx
	.loc 3 356 0 discriminator 1
	movl	-44(%rsp), %ebx
	movl	-40(%rsp), %r10d
	.loc 3 253 0 discriminator 1
	addl	%esi, %edx
	.loc 3 356 0 discriminator 1
	andl	-32(%rsp), %edx
	addl	-20(%rsp), %edx
	andl	-32(%rsp), %edx
	movl	%edx, %eax
	sall	$16, %eax
	vaddsd	.LC2(%rip), %xmm0, %xmm0
	orl	%edx, %eax
	andl	$50331903, %eax
	movl	%eax, %edx
	sall	$8, %edx
	orl	%eax, %edx
	andl	$50393103, %edx
	vsubsd	-16(%rsp), %xmm0, %xmm0
	movl	%edx, %eax
	sall	$4, %eax
	orl	%edx, %eax
	andl	$51130563, %eax
	leal	0(,%rax,4), %r11d
	vmovddup	%xmm0, %xmm0
	orl	%eax, %r11d
	andl	$153391689, %r11d
	sall	$2, %r11d
	vcvtpd2psx	%xmm0, %xmm0
	orl	%r11d, %ebx
.LBB1937:
.LBB1919:
.LBB1901:
.LBB1807:
.LBB1784:
.LBB1774:
.LBB1767:
	.loc 3 29 0 discriminator 1
	movl	%ebx, %edx
.LBE1767:
.LBE1774:
.LBE1784:
.LBE1807:
.LBE1901:
.LBE1919:
.LBE1937:
	.loc 3 356 0 discriminator 1
	vandps	%xmm13, %xmm0, %xmm0
	vucomiss	%xmm0, %xmm5
	setae	%al
	orl	%r11d, %r10d
	orl	-36(%rsp), %r11d
.LBB1938:
.LBB1920:
.LBB1902:
.LBB1808:
.LBB1809:
	.loc 4 41 0 discriminator 1
	vucomiss	%xmm0, %xmm4
	setae	%dil
.LVL448:
.LBE1809:
.LBE1808:
.LBB1828:
.LBB1785:
.LBB1775:
.LBB1768:
	.loc 3 29 0 discriminator 1
	orl	%r9d, %edx
.LBE1768:
.LBE1775:
.LBE1785:
.LBE1828:
.LBB1829:
.LBB1725:
	.loc 4 37 0 discriminator 1
	testb	%r14b, %r14b
.LBE1725:
.LBE1829:
.LBB1830:
.LBB1786:
	.loc 3 170 0 discriminator 1
	movslq	%edx, %rdx
.LBE1786:
.LBE1830:
	.loc 3 364 0 discriminator 1
	vmovsd	(%rcx,%rdx,8), %xmm1
.LVL449:
.LBB1831:
.LBB1726:
	.loc 4 37 0 discriminator 1
	jne	.L322
	.loc 4 41 0
	cmpb	$0, -3(%rsp)
	vmovapd	%xmm2, %xmm14
	je	.L323
	.loc 4 43 0
	vsubss	%xmm9, %xmm4, %xmm14
.LVL450:
	vmulss	%xmm5, %xmm14, %xmm15
	vmulss	%xmm15, %xmm14, %xmm14
.LVL451:
	vunpcklps	%xmm14, %xmm14, %xmm14
	vcvtps2pd	%xmm14, %xmm14
.L323:
.LBE1726:
.LBE1831:
.LBB1832:
.LBB1750:
	.loc 4 23 0
	vucomiss	-28(%rsp), %xmm3
	movl	%ebp, -48(%rsp)
.LBE1750:
.LBE1832:
	.loc 3 372 0
	vmulsd	%xmm14, %xmm1, %xmm1
.LVL452:
.LBB1833:
.LBB1751:
	.loc 4 23 0
	vmovss	-48(%rsp), %xmm14
	setae	%dl
.LVL453:
	testb	%dl, %dl
	je	.L324
	vmovaps	%xmm3, %xmm14
.L324:
.LVL454:
	vmulss	%xmm14, %xmm11, %xmm14
.LBE1751:
.LBE1833:
.LBB1834:
.LBB1810:
	.loc 4 37 0
	testb	%al, %al
.LBE1810:
.LBE1834:
	.loc 3 372 0
	vunpcklps	%xmm14, %xmm14, %xmm14
	vcvtps2pd	%xmm14, %xmm14
	vmulsd	%xmm14, %xmm1, %xmm1
.LVL455:
.LBB1835:
.LBB1811:
	.loc 4 37 0
	je	.L325
.LVL456:
	.loc 4 39 0
	vmulss	%xmm0, %xmm0, %xmm14
	vmovss	.LC16(%rip), %xmm15
	vsubss	%xmm14, %xmm15, %xmm14
	.loc 4 37 0
	vunpcklps	%xmm14, %xmm14, %xmm14
	vcvtps2pd	%xmm14, %xmm14
.LVL457:
.L326:
.LBE1811:
.LBE1835:
	.loc 3 372 0
	vmulsd	%xmm14, %xmm1, %xmm1
.LBB1836:
.LBB1787:
.LBB1776:
.LBB1769:
	.loc 3 29 0
	movl	%r10d, %r15d
	orl	%r9d, %r15d
.LBE1769:
.LBE1776:
.LBE1787:
.LBE1836:
.LBB1837:
.LBB1727:
	.loc 4 37 0
	testb	%r13b, %r13b
.LBE1727:
.LBE1837:
.LBB1838:
.LBB1788:
	.loc 3 170 0
	movslq	%r15d, %r15
.LBE1788:
.LBE1838:
	.loc 3 372 0
	vaddsd	%xmm12, %xmm1, %xmm12
.LVL458:
	.loc 3 364 0
	vmovsd	(%rcx,%r15,8), %xmm1
.LVL459:
.LBB1839:
.LBB1728:
	.loc 4 37 0
	jne	.L327
	.loc 4 41 0
	cmpb	$0, -2(%rsp)
	vmovapd	%xmm2, %xmm14
	je	.L328
	.loc 4 43 0
	vsubss	%xmm8, %xmm4, %xmm14
.LVL460:
	vmulss	%xmm5, %xmm14, %xmm15
	vmulss	%xmm15, %xmm14, %xmm14
.LVL461:
	vunpcklps	%xmm14, %xmm14, %xmm14
	vcvtps2pd	%xmm14, %xmm14
.L328:
.LBE1728:
.LBE1839:
.LBB1840:
.LBB1752:
	.loc 4 23 0
	testb	%dl, %dl
.LBE1752:
.LBE1840:
	.loc 3 372 0
	vmulsd	%xmm14, %xmm1, %xmm1
.LVL462:
.LBB1841:
.LBB1753:
	.loc 4 23 0
	vxorps	%xmm14, %xmm14, %xmm14
	je	.L329
	vmovaps	%xmm3, %xmm14
.L329:
.LVL463:
	vmulss	%xmm14, %xmm11, %xmm14
.LBE1753:
.LBE1841:
.LBB1842:
.LBB1812:
	.loc 4 37 0
	testb	%al, %al
.LBE1812:
.LBE1842:
	.loc 3 372 0
	vunpcklps	%xmm14, %xmm14, %xmm14
	vcvtps2pd	%xmm14, %xmm14
	vmulsd	%xmm14, %xmm1, %xmm1
.LVL464:
.LBB1843:
.LBB1813:
	.loc 4 37 0
	je	.L330
.LVL465:
	.loc 4 39 0
	vmulss	%xmm0, %xmm0, %xmm14
	vmovss	.LC16(%rip), %xmm15
	vsubss	%xmm14, %xmm15, %xmm14
	.loc 4 37 0
	vunpcklps	%xmm14, %xmm14, %xmm14
	vcvtps2pd	%xmm14, %xmm14
.LVL466:
.L331:
.LBE1813:
.LBE1843:
	.loc 3 372 0
	vmulsd	%xmm14, %xmm1, %xmm1
.LBB1844:
.LBB1789:
.LBB1777:
.LBB1770:
	.loc 3 29 0
	movl	%r11d, %r15d
.LVL467:
	orl	%r9d, %r15d
.LBE1770:
.LBE1777:
.LBE1789:
.LBE1844:
.LBB1845:
.LBB1729:
	.loc 4 37 0
	testb	%r12b, %r12b
.LBE1729:
.LBE1845:
.LBB1846:
.LBB1790:
	.loc 3 170 0
	movslq	%r15d, %r15
.LBE1790:
.LBE1846:
	.loc 3 372 0
	vaddsd	%xmm1, %xmm12, %xmm1
.LVL468:
	.loc 3 364 0
	vmovsd	(%rcx,%r15,8), %xmm12
.LVL469:
.LBB1847:
.LBB1730:
	.loc 4 37 0
	jne	.L332
	.loc 4 41 0
	cmpb	$0, -1(%rsp)
	vmovapd	%xmm2, %xmm14
	je	.L333
	.loc 4 43 0
	vsubss	%xmm7, %xmm4, %xmm14
.LVL470:
	vmulss	%xmm5, %xmm14, %xmm15
	vmulss	%xmm15, %xmm14, %xmm14
.LVL471:
	vunpcklps	%xmm14, %xmm14, %xmm14
	vcvtps2pd	%xmm14, %xmm14
.L333:
.LBE1730:
.LBE1847:
.LBB1848:
.LBB1754:
	.loc 4 23 0
	testb	%dl, %dl
.LBE1754:
.LBE1848:
	.loc 3 372 0
	vmulsd	%xmm14, %xmm12, %xmm12
.LVL472:
.LBB1849:
.LBB1755:
	.loc 4 23 0
	vxorps	%xmm14, %xmm14, %xmm14
	je	.L334
	vmovaps	%xmm3, %xmm14
.L334:
.LVL473:
	vmulss	%xmm14, %xmm11, %xmm14
.LBE1755:
.LBE1849:
.LBB1850:
.LBB1814:
	.loc 4 37 0
	testb	%al, %al
.LBE1814:
.LBE1850:
	.loc 3 372 0
	vunpcklps	%xmm14, %xmm14, %xmm14
	vcvtps2pd	%xmm14, %xmm14
	vmulsd	%xmm14, %xmm12, %xmm12
.LVL474:
.LBB1851:
.LBB1815:
	.loc 4 37 0
	je	.L335
.LVL475:
	.loc 4 39 0
	vmulss	%xmm0, %xmm0, %xmm14
	vmovss	.LC16(%rip), %xmm15
	vsubss	%xmm14, %xmm15, %xmm14
	.loc 4 37 0
	vunpcklps	%xmm14, %xmm14, %xmm14
	vcvtps2pd	%xmm14, %xmm14
.LVL476:
.L336:
.LBE1815:
.LBE1851:
	.loc 3 372 0
	vmulsd	%xmm14, %xmm12, %xmm12
.LBB1852:
.LBB1791:
.LBB1778:
.LBB1771:
	.loc 3 29 0
	orl	%r8d, %ebx
.LBE1771:
.LBE1778:
.LBE1791:
.LBE1852:
.LBB1853:
.LBB1731:
	.loc 4 37 0
	testb	%r14b, %r14b
.LBE1731:
.LBE1853:
.LBB1854:
.LBB1792:
	.loc 3 170 0
	movslq	%ebx, %rbx
.LBE1792:
.LBE1854:
	.loc 3 372 0
	vaddsd	%xmm12, %xmm1, %xmm12
.LVL477:
	.loc 3 364 0
	vmovsd	(%rcx,%rbx,8), %xmm1
.LVL478:
.LBB1855:
.LBB1732:
	.loc 4 37 0
	je	.L360
.LVL479:
	.loc 4 39 0
	vmulss	%xmm9, %xmm9, %xmm14
	vmovss	.LC16(%rip), %xmm15
	vsubss	%xmm14, %xmm15, %xmm14
	.loc 4 41 0
	vunpcklps	%xmm14, %xmm14, %xmm14
	vcvtps2pd	%xmm14, %xmm14
.LVL480:
.L308:
.LBE1732:
.LBE1855:
.LBB1856:
.LBB1756:
	.loc 4 23 0
	vucomiss	-24(%rsp), %xmm3
.LBE1756:
.LBE1856:
	.loc 3 372 0
	vmulsd	%xmm14, %xmm1, %xmm1
.LVL481:
.LBB1857:
.LBB1757:
	.loc 4 23 0
	vxorps	%xmm14, %xmm14, %xmm14
	setae	%dl
	testb	%dl, %dl
	je	.L309
	vmovaps	%xmm3, %xmm14
.L309:
.LVL482:
	vmulss	%xmm14, %xmm10, %xmm14
.LBE1757:
.LBE1857:
.LBB1858:
.LBB1816:
	.loc 4 37 0
	testb	%al, %al
.LBE1816:
.LBE1858:
	.loc 3 372 0
	vunpcklps	%xmm14, %xmm14, %xmm14
	vcvtps2pd	%xmm14, %xmm14
	vmulsd	%xmm14, %xmm1, %xmm1
.LVL483:
.LBB1859:
.LBB1817:
	.loc 4 37 0
	jne	.L310
	.loc 4 41 0
	testb	%dil, %dil
	vmovapd	%xmm2, %xmm14
	je	.L311
	.loc 4 43 0
	vsubss	%xmm0, %xmm4, %xmm14
.LVL484:
	vmulss	%xmm5, %xmm14, %xmm15
	vmulss	%xmm15, %xmm14, %xmm14
.LVL485:
	vunpcklps	%xmm14, %xmm14, %xmm14
	vcvtps2pd	%xmm14, %xmm14
.L311:
.LBE1817:
.LBE1859:
	.loc 3 372 0
	vmulsd	%xmm14, %xmm1, %xmm1
.LBB1860:
.LBB1793:
.LBB1779:
.LBB1772:
	.loc 3 29 0
	orl	%r8d, %r10d
.LBE1772:
.LBE1779:
.LBE1793:
.LBE1860:
.LBB1861:
.LBB1733:
	.loc 4 37 0
	testb	%r13b, %r13b
.LBE1733:
.LBE1861:
.LBB1862:
.LBB1794:
	.loc 3 170 0
	movslq	%r10d, %r10
.LBE1794:
.LBE1862:
	.loc 3 372 0
	vaddsd	%xmm12, %xmm1, %xmm12
.LVL486:
	.loc 3 364 0
	vmovsd	(%rcx,%r10,8), %xmm1
.LVL487:
.LBB1863:
.LBB1734:
	.loc 4 37 0
	je	.L312
.LVL488:
	.loc 4 39 0
	vmulss	%xmm8, %xmm8, %xmm14
	vmovss	.LC16(%rip), %xmm15
	vsubss	%xmm14, %xmm15, %xmm14
	.loc 4 37 0
	vunpcklps	%xmm14, %xmm14, %xmm14
	vcvtps2pd	%xmm14, %xmm14
.LVL489:
.L313:
.LBE1734:
.LBE1863:
.LBB1864:
.LBB1758:
	.loc 4 23 0
	testb	%dl, %dl
.LBE1758:
.LBE1864:
	.loc 3 372 0
	vmulsd	%xmm14, %xmm1, %xmm1
.LVL490:
.LBB1865:
.LBB1759:
	.loc 4 23 0
	vxorps	%xmm14, %xmm14, %xmm14
	je	.L314
	vmovaps	%xmm3, %xmm14
.L314:
.LVL491:
	vmulss	%xmm14, %xmm10, %xmm14
.LBE1759:
.LBE1865:
.LBB1866:
.LBB1818:
	.loc 4 37 0
	testb	%al, %al
.LBE1818:
.LBE1866:
	.loc 3 372 0
	vunpcklps	%xmm14, %xmm14, %xmm14
	vcvtps2pd	%xmm14, %xmm14
	vmulsd	%xmm14, %xmm1, %xmm1
.LVL492:
.LBB1867:
.LBB1819:
	.loc 4 37 0
	jne	.L315
	.loc 4 41 0
	testb	%dil, %dil
	vmovapd	%xmm2, %xmm14
	je	.L316
	.loc 4 43 0
	vsubss	%xmm0, %xmm4, %xmm14
.LVL493:
	vmulss	%xmm5, %xmm14, %xmm15
	vmulss	%xmm15, %xmm14, %xmm14
.LVL494:
	vunpcklps	%xmm14, %xmm14, %xmm14
	vcvtps2pd	%xmm14, %xmm14
.L316:
.LBE1819:
.LBE1867:
	.loc 3 372 0
	vmulsd	%xmm14, %xmm1, %xmm1
.LBB1868:
.LBB1795:
.LBB1780:
.LBB1773:
	.loc 3 29 0
	orl	%r8d, %r11d
.LBE1773:
.LBE1780:
.LBE1795:
.LBE1868:
.LBB1869:
.LBB1735:
	.loc 4 37 0
	testb	%r12b, %r12b
.LBE1735:
.LBE1869:
.LBB1870:
.LBB1796:
	.loc 3 170 0
	movslq	%r11d, %r11
.LBE1796:
.LBE1870:
	.loc 3 372 0
	vaddsd	%xmm1, %xmm12, %xmm1
.LVL495:
	.loc 3 364 0
	vmovsd	(%rcx,%r11,8), %xmm12
.LVL496:
.LBB1871:
.LBB1736:
	.loc 4 37 0
	je	.L317
.LVL497:
	.loc 4 39 0
	vmulss	%xmm7, %xmm7, %xmm14
	vmovss	.LC16(%rip), %xmm15
	vsubss	%xmm14, %xmm15, %xmm14
	.loc 4 37 0
	vunpcklps	%xmm14, %xmm14, %xmm14
	vcvtps2pd	%xmm14, %xmm14
.LVL498:
.L318:
.LBE1736:
.LBE1871:
.LBB1872:
.LBB1760:
	.loc 4 23 0
	testb	%dl, %dl
.LBE1760:
.LBE1872:
	.loc 3 372 0
	vmulsd	%xmm14, %xmm12, %xmm12
.LVL499:
.LBB1873:
.LBB1761:
	.loc 4 23 0
	vxorps	%xmm14, %xmm14, %xmm14
	je	.L319
	vmovaps	%xmm3, %xmm14
.L319:
.LVL500:
	vmulss	%xmm14, %xmm10, %xmm14
.LBE1761:
.LBE1873:
.LBB1874:
.LBB1820:
	.loc 4 37 0
	testb	%al, %al
.LBE1820:
.LBE1874:
	.loc 3 372 0
	vunpcklps	%xmm14, %xmm14, %xmm14
	vcvtps2pd	%xmm14, %xmm14
	vmulsd	%xmm14, %xmm12, %xmm12
.LVL501:
.LBB1875:
.LBB1821:
	.loc 4 37 0
	jne	.L320
	.loc 4 41 0
	testb	%dil, %dil
	vmovapd	%xmm2, %xmm15
	je	.L321
	.loc 4 43 0
	vsubss	%xmm0, %xmm4, %xmm0
.LVL502:
	vmulss	%xmm5, %xmm0, %xmm15
	vmulss	%xmm15, %xmm0, %xmm15
	vunpcklps	%xmm15, %xmm15, %xmm15
	vcvtps2pd	%xmm15, %xmm15
.LVL503:
.L321:
.LBE1821:
.LBE1875:
	.loc 3 372 0
	vmulsd	%xmm15, %xmm12, %xmm12
.LBE1902:
.LBE1920:
.LBE1938:
	.loc 3 356 0
	addl	$1, %esi
	cmpl	$2, %esi
.LBB1939:
.LBB1921:
.LBB1903:
	.loc 3 372 0
	vaddsd	%xmm12, %xmm1, %xmm12
.LVL504:
.LBE1903:
.LBE1921:
.LBE1939:
	.loc 3 356 0
	jne	.L307
.LVL505:
.L306:
.LBE1954:
.LBE1957:
.LBE1960:
	.loc 3 434 0
	popq	%rbx
	.cfi_remember_state
	.cfi_def_cfa_offset 48
	popq	%rbp
	.cfi_def_cfa_offset 40
	popq	%r12
	.cfi_def_cfa_offset 32
	popq	%r13
	.cfi_def_cfa_offset 24
	popq	%r14
	.cfi_def_cfa_offset 16
	popq	%r15
	.cfi_def_cfa_offset 8
	vmovapd	%xmm12, %xmm0
	ret
.LVL506:
	.p2align 4,,10
	.p2align 3
.L320:
	.cfi_restore_state
.LBB1961:
.LBB1958:
.LBB1955:
.LBB1940:
.LBB1922:
.LBB1904:
.LBB1876:
.LBB1822:
	.loc 4 39 0
	vmulss	%xmm0, %xmm0, %xmm0
.LVL507:
	vmovss	.LC16(%rip), %xmm14
	vsubss	%xmm0, %xmm14, %xmm15
.LVL508:
	.loc 4 43 0
	vunpcklps	%xmm15, %xmm15, %xmm15
.LVL509:
	vcvtps2pd	%xmm15, %xmm15
	jmp	.L321
.LVL510:
	.p2align 4,,10
	.p2align 3
.L317:
.LBE1822:
.LBE1876:
.LBB1877:
.LBB1737:
	.loc 4 41 0
	cmpb	$0, -1(%rsp)
	vmovapd	%xmm2, %xmm14
	je	.L318
	.loc 4 43 0
	vsubss	%xmm7, %xmm4, %xmm14
.LVL511:
	vmulss	%xmm5, %xmm14, %xmm15
	vmulss	%xmm15, %xmm14, %xmm14
.LVL512:
	vunpcklps	%xmm14, %xmm14, %xmm14
	vcvtps2pd	%xmm14, %xmm14
	jmp	.L318
.LVL513:
	.p2align 4,,10
	.p2align 3
.L315:
.LBE1737:
.LBE1877:
.LBB1878:
.LBB1823:
	.loc 4 39 0
	vmulss	%xmm0, %xmm0, %xmm14
	vmovss	.LC16(%rip), %xmm15
	vsubss	%xmm14, %xmm15, %xmm14
	.loc 4 43 0
	vunpcklps	%xmm14, %xmm14, %xmm14
	vcvtps2pd	%xmm14, %xmm14
	jmp	.L316
.LVL514:
	.p2align 4,,10
	.p2align 3
.L312:
.LBE1823:
.LBE1878:
.LBB1879:
.LBB1738:
	.loc 4 41 0
	cmpb	$0, -2(%rsp)
	vmovapd	%xmm2, %xmm14
	je	.L313
	.loc 4 43 0
	vsubss	%xmm8, %xmm4, %xmm14
.LVL515:
	vmulss	%xmm5, %xmm14, %xmm15
	vmulss	%xmm15, %xmm14, %xmm14
.LVL516:
	vunpcklps	%xmm14, %xmm14, %xmm14
	vcvtps2pd	%xmm14, %xmm14
	jmp	.L313
.LVL517:
	.p2align 4,,10
	.p2align 3
.L310:
.LBE1738:
.LBE1879:
.LBB1880:
.LBB1824:
	.loc 4 39 0
	vmulss	%xmm0, %xmm0, %xmm14
	vmovss	.LC16(%rip), %xmm15
	vsubss	%xmm14, %xmm15, %xmm14
	.loc 4 43 0
	vunpcklps	%xmm14, %xmm14, %xmm14
	vcvtps2pd	%xmm14, %xmm14
	jmp	.L311
.LVL518:
	.p2align 4,,10
	.p2align 3
.L360:
.LBE1824:
.LBE1880:
.LBB1881:
.LBB1739:
	.loc 4 41 0
	cmpb	$0, -3(%rsp)
	vmovapd	%xmm2, %xmm14
	je	.L308
	.loc 4 43 0
	vsubss	%xmm9, %xmm4, %xmm14
.LVL519:
	vmulss	%xmm5, %xmm14, %xmm15
	vmulss	%xmm15, %xmm14, %xmm14
.LVL520:
	vunpcklps	%xmm14, %xmm14, %xmm14
	vcvtps2pd	%xmm14, %xmm14
	jmp	.L308
.LVL521:
	.p2align 4,,10
	.p2align 3
.L335:
.LBE1739:
.LBE1881:
.LBB1882:
.LBB1825:
	.loc 4 41 0
	testb	%dil, %dil
	vmovapd	%xmm2, %xmm14
	je	.L336
	.loc 4 43 0
	vsubss	%xmm0, %xmm4, %xmm14
.LVL522:
	vmulss	%xmm5, %xmm14, %xmm15
	vmulss	%xmm15, %xmm14, %xmm14
.LVL523:
	vunpcklps	%xmm14, %xmm14, %xmm14
	vcvtps2pd	%xmm14, %xmm14
	jmp	.L336
.LVL524:
	.p2align 4,,10
	.p2align 3
.L332:
.LBE1825:
.LBE1882:
.LBB1883:
.LBB1740:
	.loc 4 39 0
	vmulss	%xmm7, %xmm7, %xmm14
	vmovss	.LC16(%rip), %xmm15
	vsubss	%xmm14, %xmm15, %xmm14
	.loc 4 43 0
	vunpcklps	%xmm14, %xmm14, %xmm14
	vcvtps2pd	%xmm14, %xmm14
	jmp	.L333
.LVL525:
	.p2align 4,,10
	.p2align 3
.L330:
.LBE1740:
.LBE1883:
.LBB1884:
.LBB1826:
	.loc 4 41 0
	testb	%dil, %dil
	vmovapd	%xmm2, %xmm14
	je	.L331
	.loc 4 43 0
	vsubss	%xmm0, %xmm4, %xmm14
.LVL526:
	vmulss	%xmm5, %xmm14, %xmm15
	vmulss	%xmm15, %xmm14, %xmm14
.LVL527:
	vunpcklps	%xmm14, %xmm14, %xmm14
	vcvtps2pd	%xmm14, %xmm14
	jmp	.L331
.LVL528:
	.p2align 4,,10
	.p2align 3
.L327:
.LBE1826:
.LBE1884:
.LBB1885:
.LBB1741:
	.loc 4 39 0
	vmulss	%xmm8, %xmm8, %xmm14
	vmovss	.LC16(%rip), %xmm15
	vsubss	%xmm14, %xmm15, %xmm14
	.loc 4 43 0
	vunpcklps	%xmm14, %xmm14, %xmm14
	vcvtps2pd	%xmm14, %xmm14
	jmp	.L328
.LVL529:
	.p2align 4,,10
	.p2align 3
.L322:
	.loc 4 39 0
	vmulss	%xmm9, %xmm9, %xmm14
	vsubss	%xmm14, %xmm6, %xmm14
	.loc 4 43 0
	vunpcklps	%xmm14, %xmm14, %xmm14
	vcvtps2pd	%xmm14, %xmm14
	jmp	.L323
.LVL530:
	.p2align 4,,10
	.p2align 3
.L325:
.LBE1741:
.LBE1885:
.LBB1886:
.LBB1827:
	.loc 4 41 0
	testb	%dil, %dil
	vmovapd	%xmm2, %xmm14
	je	.L326
	.loc 4 43 0
	vsubss	%xmm0, %xmm4, %xmm14
.LVL531:
	vmulss	%xmm5, %xmm14, %xmm15
	vmulss	%xmm15, %xmm14, %xmm14
.LVL532:
	vunpcklps	%xmm14, %xmm14, %xmm14
	vcvtps2pd	%xmm14, %xmm14
	jmp	.L326
.LBE1827:
.LBE1886:
.LBE1904:
.LBE1922:
.LBE1940:
.LBE1955:
.LBE1958:
.LBE1961:
	.cfi_endproc
.LFE2313:
	.size	_ZN12FieldDataCPU7intrpETILi1EL15FieldData_deriv0EEEddddiii, .-_ZN12FieldDataCPU7intrpETILi1EL15FieldData_deriv0EEEddddiii
	.section	.text._ZN12FieldDataCPU7intrpETILi2EL15FieldData_deriv0EEEddddiii,"axG",@progbits,_ZN12FieldDataCPU7intrpETILi2EL15FieldData_deriv0EEEddddiii,comdat
	.align 2
	.p2align 4,,15
	.weak	_ZN12FieldDataCPU7intrpETILi2EL15FieldData_deriv0EEEddddiii
	.type	_ZN12FieldDataCPU7intrpETILi2EL15FieldData_deriv0EEEddddiii, @function
_ZN12FieldDataCPU7intrpETILi2EL15FieldData_deriv0EEEddddiii:
.LFB2314:
	.loc 3 253 0
	.cfi_startproc
.LVL533:
	pushq	%r15
	.cfi_def_cfa_offset 16
	.cfi_offset 15, -16
.LBB1979:
.LBB1980:
	.loc 3 301 0
	vxorpd	%xmm13, %xmm13, %xmm13
.LBE1980:
.LBE1979:
	.loc 3 253 0
	pushq	%r14
	.cfi_def_cfa_offset 24
	.cfi_offset 14, -24
	pushq	%r13
	.cfi_def_cfa_offset 32
	.cfi_offset 13, -32
	pushq	%r12
	.cfi_def_cfa_offset 40
	.cfi_offset 12, -40
	pushq	%rbp
	.cfi_def_cfa_offset 48
	.cfi_offset 6, -48
	pushq	%rbx
	.cfi_def_cfa_offset 56
	.cfi_offset 3, -56
.LBB2282:
.LBB2279:
	.loc 3 257 0
	cmpl	$1, 92(%rdi)
.LBE2279:
.LBE2282:
	.loc 3 253 0
	vmovsd	%xmm2, -16(%rsp)
	movl	%ecx, -4(%rsp)
.LBB2283:
.LBB2280:
	.loc 3 257 0
	je	.L362
	movl	72(%rdi), %r9d
	leal	-1(%rsi), %r10d
	movl	80(%rdi), %eax
	vmovsd	.LC17(%rip), %xmm7
	vmovss	.LC11(%rip), %xmm12
	vmovss	.LC15(%rip), %xmm4
	movl	76(%rdi), %r14d
	leal	-1(%r9), %ecx
.LVL534:
	vsubsd	%xmm0, %xmm7, %xmm10
	movl	%eax, -20(%rsp)
	subl	$1, %eax
	vmovsd	.LC2(%rip), %xmm6
	andl	%ecx, %r10d
	movl	%eax, -24(%rsp)
	leal	-1(%r14), %r8d
	addl	%r9d, %r10d
	vsubsd	%xmm0, %xmm6, %xmm9
.LBB1981:
.LBB1982:
.LBB1983:
.LBB1984:
.LBB1985:
.LBB1986:
	.loc 3 159 0
	movl	%edx, %r15d
.LBE1986:
.LBE1985:
.LBE1984:
.LBE1983:
.LBE1982:
.LBE1981:
	.loc 3 257 0
	andl	%ecx, %r10d
	vmovddup	%xmm10, %xmm10
	movl	%r10d, %eax
	vmovsd	.LC18(%rip), %xmm5
	sall	$16, %eax
.LBB2260:
.LBB2237:
.LBB2214:
.LBB2191:
.LBB2035:
.LBB2036:
	.loc 4 41 0
	vmovss	.LC14(%rip), %xmm2
.LVL535:
.LBE2036:
.LBE2035:
.LBE2191:
.LBE2214:
.LBE2237:
.LBE2260:
	.loc 3 257 0
	orl	%r10d, %eax
	vmovddup	%xmm9, %xmm9
	andl	$50331903, %eax
	vsubsd	%xmm0, %xmm5, %xmm0
.LVL536:
	movl	%eax, %r10d
.LBB2261:
.LBB2238:
.LBB2215:
.LBB2192:
	.loc 3 405 0
	vsubsd	%xmm1, %xmm7, %xmm7
.LBE2192:
.LBE2215:
.LBE2238:
.LBE2261:
	.loc 3 257 0
	vcvtpd2psx	%xmm10, %xmm10
	sall	$8, %r10d
	orl	%eax, %r10d
	vmovddup	%xmm0, %xmm8
	andl	$50393103, %r10d
.LBB2262:
.LBB2239:
.LBB2216:
.LBB2193:
	.loc 3 405 0
	vsubsd	%xmm1, %xmm6, %xmm6
.LBE2193:
.LBE2216:
.LBE2239:
.LBE2262:
	.loc 3 257 0
	movl	%r10d, %eax
.LBB2263:
.LBB2240:
.LBB2217:
.LBB2194:
	.loc 3 405 0
	vsubsd	%xmm1, %xmm5, %xmm5
.LBE2194:
.LBE2217:
.LBE2240:
.LBE2263:
	.loc 3 257 0
	sall	$4, %eax
.LBB2264:
.LBB2241:
.LBB2218:
.LBB2195:
	.loc 3 410 0
	vmovddup	%xmm7, %xmm7
.LBE2195:
.LBE2218:
.LBE2241:
.LBE2264:
	.loc 3 257 0
	orl	%r10d, %eax
	movl	%esi, %r10d
	andl	$51130563, %eax
.LBB2265:
.LBB2242:
.LBB2219:
.LBB2196:
	.loc 3 410 0
	vmovddup	%xmm6, %xmm6
.LBE2196:
.LBE2219:
.LBE2242:
.LBE2265:
	.loc 3 257 0
	leal	0(,%rax,4), %r13d
	vandps	%xmm12, %xmm10, %xmm10
	vcvtpd2psx	%xmm9, %xmm9
	orl	%eax, %r13d
	movq	32(%rdi), %rax
	andl	$153391689, %r13d
.LBB2266:
.LBB2243:
.LBB2220:
.LBB2197:
	.loc 3 410 0
	vmovddup	%xmm5, %xmm5
.LBE2197:
.LBE2220:
.LBE2243:
.LBE2266:
	.loc 3 257 0
	vucomiss	%xmm10, %xmm4
	vcvtpd2psx	%xmm8, %xmm8
.LBB2267:
.LBB2244:
.LBB2221:
.LBB2198:
	.loc 3 410 0
	vcvtpd2psx	%xmm7, %xmm7
.LBE2198:
.LBE2221:
.LBE2244:
.LBE2267:
	.loc 3 257 0
	setae	%bl
	andl	%ecx, %r10d
	addl	%r9d, %r10d
	vandps	%xmm12, %xmm9, %xmm9
	andl	%ecx, %r10d
.LBB2268:
.LBB2245:
.LBB2222:
.LBB2199:
.LBB2070:
.LBB2037:
	.loc 4 41 0
	vmovsd	%xmm13, -40(%rsp)
.LBE2037:
.LBE2070:
.LBE2199:
.LBE2222:
.LBE2245:
.LBE2268:
	.loc 3 257 0
	movl	%r10d, %edi
.LVL537:
	vmovss	.LC13(%rip), %xmm11
	sall	$16, %edi
.LBB2269:
.LBB2246:
.LBB2223:
.LBB2200:
.LBB2071:
.LBB2038:
	.loc 4 39 0
	vmovss	.LC16(%rip), %xmm3
.LBE2038:
.LBE2071:
.LBE2200:
.LBE2223:
.LBE2246:
.LBE2269:
	.loc 3 257 0
	orl	%r10d, %edi
	vandps	%xmm12, %xmm8, %xmm8
	andl	$50331903, %edi
	movl	%edi, %r10d
.LBB2270:
.LBB2247:
.LBB2224:
.LBB2201:
.LBB2072:
.LBB2073:
	.loc 4 35 0
	vandps	%xmm12, %xmm7, %xmm7
.LBE2073:
.LBE2072:
.LBE2201:
.LBE2224:
.LBE2247:
.LBE2270:
	.loc 3 257 0
	sall	$8, %r10d
	orl	%edi, %r10d
	andl	$50393103, %r10d
	movl	%r10d, %edi
	sall	$4, %edi
	orl	%r10d, %edi
	andl	$51130563, %edi
	leal	0(,%rdi,4), %r12d
.LBB2271:
.LBB2248:
.LBB2225:
.LBB2202:
	.loc 3 410 0
	vcvtpd2psx	%xmm6, %xmm6
.LBE2202:
.LBE2225:
.LBE2248:
.LBE2271:
	.loc 3 257 0
	orl	%edi, %r12d
	andl	$153391689, %r12d
	vucomiss	%xmm9, %xmm4
.LBB2272:
.LBB2249:
.LBB2226:
.LBB2203:
	.loc 3 410 0
	vcvtpd2psx	%xmm5, %xmm5
.LBE2203:
.LBE2226:
.LBE2249:
.LBE2272:
	.loc 3 257 0
	setae	%r11b
	addl	$1, %esi
.LVL538:
	andl	%ecx, %esi
.LVL539:
.LBB2273:
.LBB2250:
.LBB2227:
.LBB2204:
.LBB2103:
.LBB2074:
	.loc 4 35 0
	vandps	%xmm12, %xmm6, %xmm6
.LBE2074:
.LBE2103:
.LBE2204:
.LBE2227:
.LBE2250:
.LBE2273:
	.loc 3 257 0
	addl	%esi, %r9d
	andl	%ecx, %r9d
	movl	%r9d, %ecx
	sall	$16, %ecx
.LBB2274:
.LBB2251:
.LBB2228:
.LBB2205:
.LBB2104:
.LBB2075:
	.loc 4 35 0
	vandps	%xmm12, %xmm5, %xmm5
.LBE2075:
.LBE2104:
.LBE2205:
.LBE2228:
.LBE2251:
.LBE2274:
	.loc 3 257 0
	orl	%r9d, %ecx
.LBB2275:
.LBB2252:
.LBB2229:
.LBB2206:
	.loc 3 402 0
	leal	-1(%rdx), %r9d
.LBE2206:
.LBE2229:
.LBE2252:
.LBE2275:
	.loc 3 257 0
	andl	$50331903, %ecx
	movl	%ecx, %esi
	sall	$8, %esi
	orl	%ecx, %esi
	andl	$50393103, %esi
	movl	%esi, %ecx
	sall	$4, %ecx
	orl	%esi, %ecx
	andl	$51130563, %ecx
	leal	0(,%rcx,4), %ebp
	orl	%ecx, %ebp
.LBB2276:
.LBB2253:
.LBB2230:
.LBB2207:
.LBB2105:
.LBB2039:
	.loc 4 41 0
	movq	-40(%rsp), %rcx
.LBE2039:
.LBE2105:
.LBE2207:
.LBE2230:
.LBE2253:
.LBE2276:
	.loc 3 257 0
	andl	$153391689, %ebp
	vucomiss	%xmm8, %xmm4
	setae	%r10b
.LBB2277:
.LBB2254:
.LBB2231:
.LBB2208:
.LBB2106:
.LBB2040:
	.loc 4 41 0
	vucomiss	%xmm10, %xmm2
	setae	-7(%rsp)
	vucomiss	%xmm9, %xmm2
	setae	-6(%rsp)
	vucomiss	%xmm8, %xmm2
	setae	-5(%rsp)
.LBE2040:
.LBE2106:
.LBB2107:
.LBB2013:
	.loc 3 159 0
	andl	%r8d, %r9d
	andl	%r8d, %r15d
	addl	%r14d, %r9d
	addl	%r14d, %r15d
.LBE2013:
.LBE2107:
	.loc 3 402 0
	addl	$1, %edx
.LVL540:
.LBB2108:
.LBB2014:
	.loc 3 159 0
	andl	%r8d, %r9d
	andl	%r8d, %r15d
	andl	%r8d, %edx
.LVL541:
.LBB1987:
.LBB1988:
	.loc 3 19 0
	movl	%r9d, %edi
.LBE1988:
.LBE1987:
.LBE2014:
.LBE2108:
.LBB2109:
.LBB2041:
	.loc 4 41 0
	xorl	%esi, %esi
.LBE2041:
.LBE2109:
.LBB2110:
.LBB2015:
.LBB2001:
.LBB1989:
	.loc 3 19 0
	sall	$16, %edi
	orl	%r9d, %edi
	andl	$50331903, %edi
	.loc 3 20 0
	movl	%edi, %r9d
	sall	$8, %r9d
	orl	%edi, %r9d
	andl	$50393103, %r9d
	.loc 3 21 0
	movl	%r9d, %edi
	sall	$4, %edi
	orl	%r9d, %edi
	andl	$51130563, %edi
	.loc 3 22 0
	leal	0(,%rdi,4), %r9d
	orl	%edi, %r9d
	.loc 3 19 0
	movl	%r15d, %edi
	sall	$16, %edi
	.loc 3 22 0
	andl	$153391689, %r9d
	.loc 3 19 0
	orl	%r15d, %edi
	.loc 3 29 0
	addl	%r9d, %r9d
	.loc 3 19 0
	andl	$50331903, %edi
	.loc 3 20 0
	movl	%edi, %r15d
	sall	$8, %r15d
	orl	%edi, %r15d
	andl	$50393103, %r15d
	.loc 3 21 0
	movl	%r15d, %edi
	sall	$4, %edi
	orl	%r15d, %edi
	andl	$51130563, %edi
	.loc 3 22 0
	leal	0(,%rdi,4), %r15d
	orl	%edi, %r15d
	andl	$153391689, %r15d
	.loc 3 29 0
	addl	%r15d, %r15d
.LBE1989:
.LBE2001:
	.loc 3 159 0
	addl	%r14d, %edx
	andl	%r8d, %edx
.LBB2002:
.LBB1990:
	.loc 3 29 0
	movl	%r15d, -32(%rsp)
	.loc 3 19 0
	movl	%edx, %edi
	sall	$16, %edi
	orl	%edx, %edi
	andl	$50331903, %edi
	.loc 3 20 0
	movl	%edi, %edx
	sall	$8, %edx
	orl	%edi, %edx
	andl	$50393103, %edx
	.loc 3 21 0
	movl	%edx, %edi
	sall	$4, %edi
	orl	%edx, %edi
	andl	$51130563, %edi
	.loc 3 22 0
	leal	0(,%rdi,4), %edx
	orl	%edi, %edx
	andl	$153391689, %edx
	.loc 3 29 0
	addl	%edx, %edx
	movl	%edx, -28(%rsp)
.LVL542:
.L363:
.LBE1990:
.LBE2002:
.LBE2015:
.LBE2110:
.LBE2208:
.LBE2231:
.LBE2254:
	.loc 3 394 0 discriminator 1
	vcvtsi2sd	%esi, %xmm1, %xmm1
	.loc 3 253 0 discriminator 1
	movl	-4(%rsp), %edi
.LBB2255:
.LBB2232:
.LBB2209:
.LBB2111:
.LBB2112:
	.loc 4 23 0 discriminator 1
	vxorps	%xmm0, %xmm0, %xmm0
.LBE2112:
.LBE2111:
.LBE2209:
.LBE2232:
.LBE2255:
	.loc 3 253 0 discriminator 1
	addl	%esi, %edi
	.loc 3 394 0 discriminator 1
	andl	-24(%rsp), %edi
	addl	-20(%rsp), %edi
	andl	-24(%rsp), %edi
	movl	%edi, %edx
	sall	$16, %edx
	vsubsd	-16(%rsp), %xmm1, %xmm1
	orl	%edi, %edx
	andl	$50331903, %edx
	movl	%edx, %edi
	sall	$8, %edi
	orl	%edx, %edi
	andl	$50393103, %edi
	vmovddup	%xmm1, %xmm1
	movl	%edi, %edx
	sall	$4, %edx
	orl	%edi, %edx
	vcvtpd2psx	%xmm1, %xmm1
	andl	$51130563, %edx
	leal	0(,%rdx,4), %edi
	orl	%edx, %edi
	andl	$153391689, %edi
	sall	$2, %edi
	movl	%edi, %r8d
	movl	%edi, %edx
	orl	%ebp, %edi
	vandps	%xmm12, %xmm1, %xmm1
	orl	%r13d, %r8d
.LBB2256:
.LBB2233:
.LBB2210:
.LBB2115:
.LBB2016:
.LBB2003:
.LBB1991:
	.loc 3 29 0 discriminator 1
	movl	%r8d, %r14d
.LBE1991:
.LBE2003:
.LBE2016:
.LBE2115:
.LBE2210:
.LBE2233:
.LBE2256:
	.loc 3 394 0 discriminator 1
	orl	%r12d, %edx
.LBB2257:
.LBB2234:
.LBB2211:
.LBB2116:
.LBB2017:
.LBB2004:
.LBB1992:
	.loc 3 29 0 discriminator 1
	orl	%r9d, %r14d
.LBE1992:
.LBE2004:
.LBE2017:
.LBE2116:
.LBB2117:
.LBB2042:
	.loc 4 37 0 discriminator 1
	testb	%bl, %bl
.LBE2042:
.LBE2117:
.LBB2118:
.LBB2113:
	.loc 4 23 0 discriminator 1
	vsubss	%xmm1, %xmm11, %xmm14
.LBE2113:
.LBE2118:
.LBB2119:
.LBB2018:
	.loc 3 175 0 discriminator 1
	movslq	%r14d, %r14
.LBE2018:
.LBE2119:
.LBB2120:
.LBB2114:
	.loc 4 23 0 discriminator 1
	vcmpngess	%xmm1, %xmm11, %xmm1
	vandps	%xmm1, %xmm0, %xmm15
	vandnps	%xmm11, %xmm1, %xmm1
	vorps	%xmm15, %xmm1, %xmm0
	vmulss	%xmm0, %xmm14, %xmm0
.LBE2114:
.LBE2120:
	.loc 3 402 0 discriminator 1
	vmovsd	(%rax,%r14,8), %xmm14
	.loc 3 410 0 discriminator 1
	vunpcklps	%xmm0, %xmm0, %xmm0
	vcvtps2pd	%xmm0, %xmm0
.LVL543:
.LBB2121:
.LBB2043:
	.loc 4 37 0 discriminator 1
	jne	.L380
	.loc 4 41 0
	cmpb	$0, -7(%rsp)
	movq	%rcx, -40(%rsp)
	vmovsd	-40(%rsp), %xmm1
	jne	.L451
.LVL544:
.L381:
.LBE2043:
.LBE2121:
.LBB2122:
.LBB2076:
	.loc 4 37 0
	vucomiss	%xmm7, %xmm4
.LBE2076:
.LBE2122:
	.loc 3 410 0
	vmulsd	%xmm1, %xmm14, %xmm1
.LVL545:
.LBB2123:
.LBB2077:
	.loc 4 37 0
	setae	%r14b
.LVL546:
	jb	.L382
.LVL547:
	.loc 4 39 0
	vmulss	%xmm7, %xmm7, %xmm14
.LVL548:
	vmovss	.LC16(%rip), %xmm15
	vsubss	%xmm14, %xmm15, %xmm14
	.loc 4 37 0
	vunpcklps	%xmm14, %xmm14, %xmm14
	vcvtps2pd	%xmm14, %xmm14
.L383:
.LBE2077:
.LBE2123:
	.loc 3 410 0
	vmulsd	%xmm14, %xmm1, %xmm1
.LBB2124:
.LBB2019:
.LBB2005:
.LBB1993:
	.loc 3 29 0
	movl	%edx, %r15d
	orl	%r9d, %r15d
.LBE1993:
.LBE2005:
.LBE2019:
.LBE2124:
.LBB2125:
.LBB2044:
	.loc 4 37 0
	testb	%r11b, %r11b
.LBE2044:
.LBE2125:
.LBB2126:
.LBB2020:
	.loc 3 175 0
	movslq	%r15d, %r15
.LBE2020:
.LBE2126:
	.loc 3 402 0
	vmovsd	(%rax,%r15,8), %xmm14
	.loc 3 410 0
	vmulsd	%xmm0, %xmm1, %xmm1
	vaddsd	%xmm13, %xmm1, %xmm13
.LVL549:
.LBB2127:
.LBB2045:
	.loc 4 37 0
	je	.L385
.LVL550:
	.loc 4 39 0
	vmulss	%xmm9, %xmm9, %xmm1
	vmovss	.LC16(%rip), %xmm15
	vsubss	%xmm1, %xmm15, %xmm1
	.loc 4 37 0
	vunpcklps	%xmm1, %xmm1, %xmm1
	vcvtps2pd	%xmm1, %xmm1
.LVL551:
.L386:
.LBE2045:
.LBE2127:
.LBB2128:
.LBB2078:
	testb	%r14b, %r14b
.LBE2078:
.LBE2128:
	.loc 3 410 0
	vmulsd	%xmm1, %xmm14, %xmm1
.LVL552:
.LBB2129:
.LBB2079:
	.loc 4 37 0
	je	.L387
.L454:
.LVL553:
	.loc 4 39 0
	vmulss	%xmm7, %xmm7, %xmm14
	vmovss	.LC16(%rip), %xmm15
	vsubss	%xmm14, %xmm15, %xmm14
	.loc 4 37 0
	vunpcklps	%xmm14, %xmm14, %xmm14
	vcvtps2pd	%xmm14, %xmm14
.L388:
.LVL554:
.LBE2079:
.LBE2129:
	.loc 3 410 0
	vmulsd	%xmm14, %xmm1, %xmm1
.LBB2130:
.LBB2021:
.LBB2006:
.LBB1994:
	.loc 3 29 0
	movl	%edi, %r15d
.LVL555:
	orl	%r9d, %r15d
.LBE1994:
.LBE2006:
.LBE2021:
.LBE2130:
.LBB2131:
.LBB2046:
	.loc 4 37 0
	testb	%r10b, %r10b
.LBE2046:
.LBE2131:
.LBB2132:
.LBB2022:
	.loc 3 175 0
	movslq	%r15d, %r15
.LBE2022:
.LBE2132:
	.loc 3 402 0
	vmovsd	(%rax,%r15,8), %xmm14
	.loc 3 410 0
	vmulsd	%xmm1, %xmm0, %xmm1
	vaddsd	%xmm1, %xmm13, %xmm1
.LVL556:
.LBB2133:
.LBB2047:
	.loc 4 37 0
	je	.L390
.LVL557:
	.loc 4 39 0
	vmulss	%xmm8, %xmm8, %xmm13
	vmovss	.LC16(%rip), %xmm15
	vsubss	%xmm13, %xmm15, %xmm13
	.loc 4 37 0
	vunpcklps	%xmm13, %xmm13, %xmm13
	vcvtps2pd	%xmm13, %xmm13
.LVL558:
.L391:
.LBE2047:
.LBE2133:
.LBB2134:
.LBB2080:
	testb	%r14b, %r14b
.LBE2080:
.LBE2134:
	.loc 3 410 0
	vmulsd	%xmm13, %xmm14, %xmm13
.LVL559:
.LBB2135:
.LBB2081:
	.loc 4 37 0
	je	.L392
.LVL560:
	.loc 4 39 0
	vmulss	%xmm7, %xmm7, %xmm14
	vmovss	.LC16(%rip), %xmm15
	vsubss	%xmm14, %xmm15, %xmm14
	.loc 4 37 0
	vunpcklps	%xmm14, %xmm14, %xmm14
	vcvtps2pd	%xmm14, %xmm14
.L393:
.LBE2081:
.LBE2135:
	.loc 3 410 0
	vmulsd	%xmm14, %xmm13, %xmm13
.LBB2136:
.LBB2023:
.LBB2007:
.LBB1995:
	.loc 3 29 0
	movl	-32(%rsp), %r14d
	orl	%r8d, %r14d
.LBE1995:
.LBE2007:
.LBE2023:
.LBE2136:
.LBB2137:
.LBB2048:
	.loc 4 37 0
	testb	%bl, %bl
.LBE2048:
.LBE2137:
	.loc 3 410 0
	vmulsd	%xmm13, %xmm0, %xmm13
.LBB2138:
.LBB2024:
	.loc 3 175 0
	movslq	%r14d, %r14
.LBE2024:
.LBE2138:
	.loc 3 402 0
	vmovsd	(%rax,%r14,8), %xmm14
	.loc 3 410 0
	vaddsd	%xmm13, %xmm1, %xmm13
.LVL561:
.LBB2139:
.LBB2049:
	.loc 4 37 0
	jne	.L395
	.loc 4 41 0
	cmpb	$0, -7(%rsp)
	movq	%rcx, -40(%rsp)
	vmovsd	-40(%rsp), %xmm1
	jne	.L452
.LVL562:
.L396:
.LBE2049:
.LBE2139:
.LBB2140:
.LBB2082:
	.loc 4 37 0
	vucomiss	%xmm6, %xmm4
.LBE2082:
.LBE2140:
	.loc 3 410 0
	vmulsd	%xmm1, %xmm14, %xmm1
.LVL563:
.LBB2141:
.LBB2083:
	.loc 4 37 0
	setae	%r14b
.LVL564:
	jb	.L397
.L455:
.LVL565:
	.loc 4 39 0
	vmulss	%xmm6, %xmm6, %xmm14
.LVL566:
	vmovss	.LC16(%rip), %xmm15
	vsubss	%xmm14, %xmm15, %xmm14
	.loc 4 37 0
	vunpcklps	%xmm14, %xmm14, %xmm14
	vcvtps2pd	%xmm14, %xmm14
.L398:
.LBE2083:
.LBE2141:
	.loc 3 410 0
	vmulsd	%xmm14, %xmm1, %xmm14
.LBB2142:
.LBB2025:
.LBB2008:
.LBB1996:
	.loc 3 29 0
	movl	-32(%rsp), %r15d
	orl	%edx, %r15d
.LBE1996:
.LBE2008:
.LBE2025:
.LBE2142:
.LBB2143:
.LBB2050:
	.loc 4 37 0
	testb	%r11b, %r11b
.LBE2050:
.LBE2143:
	.loc 3 410 0
	vmulsd	%xmm0, %xmm14, %xmm14
.LBB2144:
.LBB2026:
	.loc 3 175 0
	movslq	%r15d, %r15
.LBE2026:
.LBE2144:
	.loc 3 410 0
	vaddsd	%xmm13, %xmm14, %xmm14
.LVL567:
	.loc 3 402 0
	vmovsd	(%rax,%r15,8), %xmm13
.LVL568:
.LBB2145:
.LBB2051:
	.loc 4 37 0
	je	.L400
.LVL569:
	.loc 4 39 0
	vmulss	%xmm9, %xmm9, %xmm1
	vmovss	.LC16(%rip), %xmm15
	vsubss	%xmm1, %xmm15, %xmm1
	.loc 4 37 0
	vunpcklps	%xmm1, %xmm1, %xmm1
	vcvtps2pd	%xmm1, %xmm1
.LVL570:
.L401:
.LBE2051:
.LBE2145:
.LBB2146:
.LBB2084:
	testb	%r14b, %r14b
.LBE2084:
.LBE2146:
	.loc 3 410 0
	vmulsd	%xmm1, %xmm13, %xmm1
.LVL571:
.LBB2147:
.LBB2085:
	.loc 4 37 0
	je	.L402
.LVL572:
	.loc 4 39 0
	vmulss	%xmm6, %xmm6, %xmm13
	vmovss	.LC16(%rip), %xmm15
	vsubss	%xmm13, %xmm15, %xmm13
	.loc 4 37 0
	vunpcklps	%xmm13, %xmm13, %xmm13
	vcvtps2pd	%xmm13, %xmm13
.L403:
.LBE2085:
.LBE2147:
	.loc 3 410 0
	vmulsd	%xmm13, %xmm1, %xmm1
.LBB2148:
.LBB2027:
.LBB2009:
.LBB1997:
	.loc 3 29 0
	movl	-32(%rsp), %r15d
.LVL573:
	orl	%edi, %r15d
.LBE1997:
.LBE2009:
.LBE2027:
.LBE2148:
.LBB2149:
.LBB2052:
	.loc 4 37 0
	testb	%r10b, %r10b
.LBE2052:
.LBE2149:
	.loc 3 410 0
	vmulsd	%xmm1, %xmm0, %xmm1
.LBB2150:
.LBB2028:
	.loc 3 175 0
	movslq	%r15d, %r15
.LBE2028:
.LBE2150:
	.loc 3 410 0
	vaddsd	%xmm1, %xmm14, %xmm1
.LVL574:
	.loc 3 402 0
	vmovsd	(%rax,%r15,8), %xmm14
.LVL575:
.LBB2151:
.LBB2053:
	.loc 4 37 0
	je	.L405
.LVL576:
	.loc 4 39 0
	vmulss	%xmm8, %xmm8, %xmm13
	vmovss	.LC16(%rip), %xmm15
	vsubss	%xmm13, %xmm15, %xmm13
	.loc 4 37 0
	vunpcklps	%xmm13, %xmm13, %xmm13
	vcvtps2pd	%xmm13, %xmm13
.LVL577:
.L406:
.LBE2053:
.LBE2151:
.LBB2152:
.LBB2086:
	testb	%r14b, %r14b
.LBE2086:
.LBE2152:
	.loc 3 410 0
	vmulsd	%xmm13, %xmm14, %xmm13
.LVL578:
.LBB2153:
.LBB2087:
	.loc 4 37 0
	je	.L407
.LVL579:
	.loc 4 39 0
	vmulss	%xmm6, %xmm6, %xmm14
	vmovss	.LC16(%rip), %xmm15
	vsubss	%xmm14, %xmm15, %xmm14
	.loc 4 37 0
	vunpcklps	%xmm14, %xmm14, %xmm14
	vcvtps2pd	%xmm14, %xmm14
.L408:
.LBE2087:
.LBE2153:
	.loc 3 410 0
	vmulsd	%xmm14, %xmm13, %xmm13
.LBB2154:
.LBB2029:
.LBB2010:
.LBB1998:
	.loc 3 29 0
	orl	-28(%rsp), %r8d
.LBE1998:
.LBE2010:
.LBE2029:
.LBE2154:
.LBB2155:
.LBB2054:
	.loc 4 37 0
	testb	%bl, %bl
.LBE2054:
.LBE2155:
	.loc 3 410 0
	vmulsd	%xmm13, %xmm0, %xmm13
.LBB2156:
.LBB2030:
	.loc 3 175 0
	movslq	%r8d, %r8
.LBE2030:
.LBE2156:
	.loc 3 410 0
	vaddsd	%xmm13, %xmm1, %xmm13
.LVL580:
	.loc 3 402 0
	vmovsd	(%rax,%r8,8), %xmm1
.LVL581:
.LBB2157:
.LBB2055:
	.loc 4 37 0
	je	.L453
.LVL582:
	.loc 4 39 0
	vmulss	%xmm10, %xmm10, %xmm14
	vmovss	.LC16(%rip), %xmm15
	vsubss	%xmm14, %xmm15, %xmm14
	.loc 4 41 0
	vunpcklps	%xmm14, %xmm14, %xmm14
	vcvtps2pd	%xmm14, %xmm14
.LVL583:
.L364:
.LBE2055:
.LBE2157:
.LBB2158:
.LBB2088:
	.loc 4 37 0
	vucomiss	%xmm5, %xmm4
.LBE2088:
.LBE2158:
	.loc 3 410 0
	vmulsd	%xmm14, %xmm1, %xmm1
.LVL584:
.LBB2159:
.LBB2089:
	.loc 4 37 0
	setae	%r8b
.LVL585:
	jae	.L365
	.loc 4 41 0
	vucomiss	%xmm5, %xmm2
	jb	.L440
	.loc 4 43 0
	vsubss	%xmm5, %xmm2, %xmm14
.LVL586:
	vmulss	%xmm4, %xmm14, %xmm15
	vmulss	%xmm15, %xmm14, %xmm14
.LVL587:
	vunpcklps	%xmm14, %xmm14, %xmm14
	vcvtps2pd	%xmm14, %xmm14
	jmp	.L366
.LVL588:
	.p2align 4,,10
	.p2align 3
.L375:
	.loc 4 39 0
	vmulss	%xmm5, %xmm5, %xmm14
.LVL589:
	vmovss	.LC16(%rip), %xmm15
	vsubss	%xmm14, %xmm15, %xmm14
	.loc 4 43 0
	vunpcklps	%xmm14, %xmm14, %xmm14
	vcvtps2pd	%xmm14, %xmm14
.L376:
.LBE2089:
.LBE2159:
	.loc 3 410 0
	vmulsd	%xmm14, %xmm13, %xmm13
	addq	$1, %rsi
.LBE2211:
.LBE2234:
.LBE2257:
	.loc 3 394 0
	cmpq	$2, %rsi
.LBB2258:
.LBB2235:
.LBB2212:
	.loc 3 410 0
	vmulsd	%xmm13, %xmm0, %xmm13
	vaddsd	%xmm13, %xmm1, %xmm13
.LVL590:
.LBE2212:
.LBE2235:
.LBE2258:
	.loc 3 394 0
	jne	.L363
.LVL591:
.L362:
.LBE2277:
.LBE2280:
.LBE2283:
	.loc 3 434 0
	popq	%rbx
	.cfi_remember_state
	.cfi_def_cfa_offset 48
	popq	%rbp
	.cfi_def_cfa_offset 40
	popq	%r12
	.cfi_def_cfa_offset 32
	popq	%r13
	.cfi_def_cfa_offset 24
	popq	%r14
	.cfi_def_cfa_offset 16
	popq	%r15
	.cfi_def_cfa_offset 8
	vmovapd	%xmm13, %xmm0
	ret
.LVL592:
	.p2align 4,,10
	.p2align 3
.L385:
	.cfi_restore_state
.LBB2284:
.LBB2281:
.LBB2278:
.LBB2259:
.LBB2236:
.LBB2213:
.LBB2160:
.LBB2056:
	.loc 4 41 0
	cmpb	$0, -6(%rsp)
	movq	%rcx, -40(%rsp)
	vmovsd	-40(%rsp), %xmm1
	je	.L386
	.loc 4 43 0
	vsubss	%xmm9, %xmm2, %xmm1
.LVL593:
.LBE2056:
.LBE2160:
.LBB2161:
.LBB2090:
	.loc 4 37 0
	testb	%r14b, %r14b
.LBE2090:
.LBE2161:
.LBB2162:
.LBB2057:
	.loc 4 43 0
	vmulss	%xmm4, %xmm1, %xmm15
	vmulss	%xmm15, %xmm1, %xmm1
.LVL594:
	vunpcklps	%xmm1, %xmm1, %xmm1
	vcvtps2pd	%xmm1, %xmm1
.LBE2057:
.LBE2162:
	.loc 3 410 0
	vmulsd	%xmm1, %xmm14, %xmm1
.LVL595:
.LBB2163:
.LBB2091:
	.loc 4 37 0
	jne	.L454
.L387:
	.loc 4 41 0
	vucomiss	%xmm7, %xmm2
	jb	.L444
	.loc 4 43 0
	vsubss	%xmm7, %xmm2, %xmm14
.LVL596:
	vmulss	%xmm4, %xmm14, %xmm15
	vmulss	%xmm15, %xmm14, %xmm14
.LVL597:
	vunpcklps	%xmm14, %xmm14, %xmm14
	vcvtps2pd	%xmm14, %xmm14
	jmp	.L388
.LVL598:
	.p2align 4,,10
	.p2align 3
.L382:
	.loc 4 41 0
	vucomiss	%xmm7, %xmm2
	jb	.L443
	.loc 4 43 0
	vsubss	%xmm7, %xmm2, %xmm14
.LVL599:
	vmulss	%xmm4, %xmm14, %xmm15
	vmulss	%xmm15, %xmm14, %xmm14
.LVL600:
	vunpcklps	%xmm14, %xmm14, %xmm14
	vcvtps2pd	%xmm14, %xmm14
	jmp	.L383
.LVL601:
	.p2align 4,,10
	.p2align 3
.L395:
.LBE2091:
.LBE2163:
.LBB2164:
.LBB2058:
	.loc 4 39 0
	vmulss	%xmm10, %xmm10, %xmm1
	vmovss	.LC16(%rip), %xmm15
.LBE2058:
.LBE2164:
.LBB2165:
.LBB2092:
	.loc 4 37 0
	vucomiss	%xmm6, %xmm4
.LBE2092:
.LBE2165:
.LBB2166:
.LBB2059:
	.loc 4 39 0
	vsubss	%xmm1, %xmm15, %xmm1
.LBE2059:
.LBE2166:
.LBB2167:
.LBB2093:
	.loc 4 37 0
	setae	%r14b
.LBE2093:
.LBE2167:
.LBB2168:
.LBB2060:
	.loc 4 43 0
	vunpcklps	%xmm1, %xmm1, %xmm1
	vcvtps2pd	%xmm1, %xmm1
.LVL602:
.LBE2060:
.LBE2168:
	.loc 3 410 0
	vmulsd	%xmm1, %xmm14, %xmm1
.LVL603:
.LBB2169:
.LBB2094:
	.loc 4 37 0
	jae	.L455
.L397:
	.loc 4 41 0
	vucomiss	%xmm6, %xmm2
	jb	.L446
	.loc 4 43 0
	vsubss	%xmm6, %xmm2, %xmm14
.LVL604:
	vmulss	%xmm4, %xmm14, %xmm15
	vmulss	%xmm15, %xmm14, %xmm14
.LVL605:
	vunpcklps	%xmm14, %xmm14, %xmm14
	vcvtps2pd	%xmm14, %xmm14
	jmp	.L398
.LVL606:
	.p2align 4,,10
	.p2align 3
.L392:
	.loc 4 41 0
	vucomiss	%xmm7, %xmm2
	jb	.L445
	.loc 4 43 0
	vsubss	%xmm7, %xmm2, %xmm14
.LVL607:
	vmulss	%xmm4, %xmm14, %xmm15
	vmulss	%xmm15, %xmm14, %xmm14
.LVL608:
	vunpcklps	%xmm14, %xmm14, %xmm14
	vcvtps2pd	%xmm14, %xmm14
	jmp	.L393
.LVL609:
	.p2align 4,,10
	.p2align 3
.L390:
.LBE2094:
.LBE2169:
.LBB2170:
.LBB2061:
	.loc 4 41 0
	cmpb	$0, -5(%rsp)
	movq	%rcx, -40(%rsp)
	vmovsd	-40(%rsp), %xmm13
	je	.L391
	.loc 4 43 0
	vsubss	%xmm8, %xmm2, %xmm13
.LVL610:
	vmulss	%xmm4, %xmm13, %xmm15
	vmulss	%xmm15, %xmm13, %xmm13
.LVL611:
	vunpcklps	%xmm13, %xmm13, %xmm13
	vcvtps2pd	%xmm13, %xmm13
	jmp	.L391
.LVL612:
	.p2align 4,,10
	.p2align 3
.L380:
	.loc 4 39 0
	vmulss	%xmm10, %xmm10, %xmm1
	vsubss	%xmm1, %xmm3, %xmm1
	.loc 4 43 0
	vunpcklps	%xmm1, %xmm1, %xmm1
	vcvtps2pd	%xmm1, %xmm1
	jmp	.L381
.LVL613:
	.p2align 4,,10
	.p2align 3
.L365:
.LBE2061:
.LBE2170:
.LBB2171:
.LBB2095:
	.loc 4 39 0
	vmulss	%xmm5, %xmm5, %xmm14
	vmovss	.LC16(%rip), %xmm15
	vsubss	%xmm14, %xmm15, %xmm14
	.loc 4 43 0
	vunpcklps	%xmm14, %xmm14, %xmm14
	vcvtps2pd	%xmm14, %xmm14
.L366:
.LBE2095:
.LBE2171:
	.loc 3 410 0
	vmulsd	%xmm14, %xmm1, %xmm1
.LBB2172:
.LBB2031:
.LBB2011:
.LBB1999:
	.loc 3 29 0
	orl	-28(%rsp), %edx
.LBE1999:
.LBE2011:
.LBE2031:
.LBE2172:
.LBB2173:
.LBB2062:
	.loc 4 37 0
	testb	%r11b, %r11b
.LBE2062:
.LBE2173:
	.loc 3 410 0
	vmulsd	%xmm0, %xmm1, %xmm1
.LBB2174:
.LBB2032:
	.loc 3 175 0
	movslq	%edx, %rdx
.LBE2032:
.LBE2174:
	.loc 3 402 0
	vmovsd	(%rax,%rdx,8), %xmm14
	.loc 3 410 0
	vaddsd	%xmm13, %xmm1, %xmm13
.LVL614:
.LBB2175:
.LBB2063:
	.loc 4 37 0
	je	.L368
.LVL615:
	.loc 4 39 0
	vmulss	%xmm9, %xmm9, %xmm1
	vmovss	.LC16(%rip), %xmm15
	vsubss	%xmm1, %xmm15, %xmm1
	.loc 4 37 0
	vunpcklps	%xmm1, %xmm1, %xmm1
	vcvtps2pd	%xmm1, %xmm1
.LVL616:
.L369:
.LBE2063:
.LBE2175:
.LBB2176:
.LBB2096:
	testb	%r8b, %r8b
.LBE2096:
.LBE2176:
	.loc 3 410 0
	vmulsd	%xmm1, %xmm14, %xmm1
.LVL617:
.LBB2177:
.LBB2097:
	.loc 4 37 0
	jne	.L370
	.loc 4 41 0
	vucomiss	%xmm5, %xmm2
	jb	.L441
	.loc 4 43 0
	vsubss	%xmm5, %xmm2, %xmm14
.LVL618:
	vmulss	%xmm4, %xmm14, %xmm15
	vmulss	%xmm15, %xmm14, %xmm14
.LVL619:
	vunpcklps	%xmm14, %xmm14, %xmm14
	vcvtps2pd	%xmm14, %xmm14
	jmp	.L371
.LVL620:
	.p2align 4,,10
	.p2align 3
.L453:
.LBE2097:
.LBE2177:
.LBB2178:
.LBB2064:
	.loc 4 41 0
	cmpb	$0, -7(%rsp)
	movq	%rcx, -40(%rsp)
	vmovsd	-40(%rsp), %xmm14
	je	.L364
	.loc 4 43 0
	vsubss	%xmm10, %xmm2, %xmm14
.LVL621:
	vmulss	%xmm4, %xmm14, %xmm15
	vmulss	%xmm15, %xmm14, %xmm14
.LVL622:
	vunpcklps	%xmm14, %xmm14, %xmm14
	vcvtps2pd	%xmm14, %xmm14
	jmp	.L364
.LVL623:
	.p2align 4,,10
	.p2align 3
.L407:
.LBE2064:
.LBE2178:
.LBB2179:
.LBB2098:
	.loc 4 41 0
	vucomiss	%xmm6, %xmm2
	jb	.L448
	.loc 4 43 0
	vsubss	%xmm6, %xmm2, %xmm14
.LVL624:
	vmulss	%xmm4, %xmm14, %xmm15
	vmulss	%xmm15, %xmm14, %xmm14
.LVL625:
	vunpcklps	%xmm14, %xmm14, %xmm14
	vcvtps2pd	%xmm14, %xmm14
	jmp	.L408
.LVL626:
	.p2align 4,,10
	.p2align 3
.L370:
	.loc 4 39 0
	vmulss	%xmm5, %xmm5, %xmm14
.LVL627:
	vmovss	.LC16(%rip), %xmm15
	vsubss	%xmm14, %xmm15, %xmm14
	.loc 4 43 0
	vunpcklps	%xmm14, %xmm14, %xmm14
	vcvtps2pd	%xmm14, %xmm14
.L371:
.LBE2098:
.LBE2179:
	.loc 3 410 0
	vmulsd	%xmm14, %xmm1, %xmm1
.LBB2180:
.LBB2033:
.LBB2012:
.LBB2000:
	.loc 3 29 0
	orl	-28(%rsp), %edi
.LBE2000:
.LBE2012:
.LBE2033:
.LBE2180:
.LBB2181:
.LBB2065:
	.loc 4 37 0
	testb	%r10b, %r10b
.LBE2065:
.LBE2181:
	.loc 3 410 0
	vmulsd	%xmm1, %xmm0, %xmm1
.LBB2182:
.LBB2034:
	.loc 3 175 0
	movslq	%edi, %rdi
.LBE2034:
.LBE2182:
	.loc 3 402 0
	vmovsd	(%rax,%rdi,8), %xmm14
	.loc 3 410 0
	vaddsd	%xmm1, %xmm13, %xmm1
.LVL628:
.LBB2183:
.LBB2066:
	.loc 4 37 0
	je	.L373
.LVL629:
	.loc 4 39 0
	vmulss	%xmm8, %xmm8, %xmm13
	vmovss	.LC16(%rip), %xmm15
	vsubss	%xmm13, %xmm15, %xmm13
	.loc 4 37 0
	vunpcklps	%xmm13, %xmm13, %xmm13
	vcvtps2pd	%xmm13, %xmm13
.LVL630:
.L374:
.LBE2066:
.LBE2183:
.LBB2184:
.LBB2099:
	testb	%r8b, %r8b
.LBE2099:
.LBE2184:
	.loc 3 410 0
	vmulsd	%xmm13, %xmm14, %xmm13
.LVL631:
.LBB2185:
.LBB2100:
	.loc 4 37 0
	jne	.L375
	.loc 4 41 0
	vucomiss	%xmm5, %xmm2
	jb	.L442
	.loc 4 43 0
	vsubss	%xmm5, %xmm2, %xmm14
.LVL632:
	vmulss	%xmm4, %xmm14, %xmm15
	vmulss	%xmm15, %xmm14, %xmm14
.LVL633:
	vunpcklps	%xmm14, %xmm14, %xmm14
	vcvtps2pd	%xmm14, %xmm14
	jmp	.L376
.LVL634:
	.p2align 4,,10
	.p2align 3
.L368:
.LBE2100:
.LBE2185:
.LBB2186:
.LBB2067:
	.loc 4 41 0
	cmpb	$0, -6(%rsp)
	movq	%rcx, -40(%rsp)
	vmovsd	-40(%rsp), %xmm1
	je	.L369
	.loc 4 43 0
	vsubss	%xmm9, %xmm2, %xmm1
.LVL635:
	vmulss	%xmm4, %xmm1, %xmm15
	vmulss	%xmm15, %xmm1, %xmm1
.LVL636:
	vunpcklps	%xmm1, %xmm1, %xmm1
	vcvtps2pd	%xmm1, %xmm1
	jmp	.L369
.LVL637:
	.p2align 4,,10
	.p2align 3
.L373:
	.loc 4 41 0
	cmpb	$0, -5(%rsp)
	movq	%rcx, -40(%rsp)
	vmovsd	-40(%rsp), %xmm13
	je	.L374
	.loc 4 43 0
	vsubss	%xmm8, %xmm2, %xmm13
.LVL638:
	vmulss	%xmm4, %xmm13, %xmm15
	vmulss	%xmm15, %xmm13, %xmm13
.LVL639:
	vunpcklps	%xmm13, %xmm13, %xmm13
	vcvtps2pd	%xmm13, %xmm13
	jmp	.L374
.LVL640:
	.p2align 4,,10
	.p2align 3
.L405:
	.loc 4 41 0
	cmpb	$0, -5(%rsp)
	movq	%rcx, -40(%rsp)
	vmovsd	-40(%rsp), %xmm13
	je	.L406
	.loc 4 43 0
	vsubss	%xmm8, %xmm2, %xmm13
.LVL641:
	vmulss	%xmm4, %xmm13, %xmm15
	vmulss	%xmm15, %xmm13, %xmm13
.LVL642:
	vunpcklps	%xmm13, %xmm13, %xmm13
	vcvtps2pd	%xmm13, %xmm13
	jmp	.L406
.LVL643:
	.p2align 4,,10
	.p2align 3
.L402:
.LBE2067:
.LBE2186:
.LBB2187:
.LBB2101:
	.loc 4 41 0
	vucomiss	%xmm6, %xmm2
	jb	.L447
	.loc 4 43 0
	vsubss	%xmm6, %xmm2, %xmm13
.LVL644:
	vmulss	%xmm4, %xmm13, %xmm15
	vmulss	%xmm15, %xmm13, %xmm13
.LVL645:
	vunpcklps	%xmm13, %xmm13, %xmm13
	vcvtps2pd	%xmm13, %xmm13
	jmp	.L403
.LVL646:
	.p2align 4,,10
	.p2align 3
.L400:
.LBE2101:
.LBE2187:
.LBB2188:
.LBB2068:
	.loc 4 41 0
	cmpb	$0, -6(%rsp)
	movq	%rcx, -40(%rsp)
	vmovsd	-40(%rsp), %xmm1
	je	.L401
	.loc 4 43 0
	vsubss	%xmm9, %xmm2, %xmm1
.LVL647:
	vmulss	%xmm4, %xmm1, %xmm15
	vmulss	%xmm15, %xmm1, %xmm1
.LVL648:
	vunpcklps	%xmm1, %xmm1, %xmm1
	vcvtps2pd	%xmm1, %xmm1
	jmp	.L401
.LVL649:
	.p2align 4,,10
	.p2align 3
.L446:
.LBE2068:
.LBE2188:
.LBB2189:
.LBB2102:
	.loc 4 41 0
	movq	%rcx, -40(%rsp)
	vmovsd	-40(%rsp), %xmm14
.LVL650:
	jmp	.L398
.LVL651:
	.p2align 4,,10
	.p2align 3
.L447:
	movq	%rcx, -40(%rsp)
	vmovsd	-40(%rsp), %xmm13
.LVL652:
	jmp	.L403
.LVL653:
	.p2align 4,,10
	.p2align 3
.L442:
	movq	%rcx, -40(%rsp)
	vmovsd	-40(%rsp), %xmm14
.LVL654:
	jmp	.L376
.LVL655:
	.p2align 4,,10
	.p2align 3
.L448:
	movq	%rcx, -40(%rsp)
	vmovsd	-40(%rsp), %xmm14
	jmp	.L408
.LVL656:
	.p2align 4,,10
	.p2align 3
.L441:
	movq	%rcx, -40(%rsp)
	vmovsd	-40(%rsp), %xmm14
.LVL657:
	jmp	.L371
.LVL658:
	.p2align 4,,10
	.p2align 3
.L444:
	movq	%rcx, -40(%rsp)
	vmovsd	-40(%rsp), %xmm14
.LVL659:
	jmp	.L388
.LVL660:
	.p2align 4,,10
	.p2align 3
.L445:
	movq	%rcx, -40(%rsp)
	vmovsd	-40(%rsp), %xmm14
.LVL661:
	jmp	.L393
.LVL662:
	.p2align 4,,10
	.p2align 3
.L443:
	movq	%rcx, -40(%rsp)
	vmovsd	-40(%rsp), %xmm14
.LVL663:
	jmp	.L383
.LVL664:
	.p2align 4,,10
	.p2align 3
.L440:
	movq	%rcx, -40(%rsp)
	vmovsd	-40(%rsp), %xmm14
	jmp	.L366
.LVL665:
	.p2align 4,,10
	.p2align 3
.L452:
.LBE2102:
.LBE2189:
.LBB2190:
.LBB2069:
	.loc 4 43 0
	vsubss	%xmm10, %xmm2, %xmm1
.LVL666:
	vmulss	%xmm4, %xmm1, %xmm15
	vmulss	%xmm15, %xmm1, %xmm1
.LVL667:
	vunpcklps	%xmm1, %xmm1, %xmm1
	vcvtps2pd	%xmm1, %xmm1
	jmp	.L396
.LVL668:
	.p2align 4,,10
	.p2align 3
.L451:
	vsubss	%xmm10, %xmm2, %xmm1
.LVL669:
	vmulss	%xmm4, %xmm1, %xmm15
	vmulss	%xmm15, %xmm1, %xmm1
.LVL670:
	vunpcklps	%xmm1, %xmm1, %xmm1
	vcvtps2pd	%xmm1, %xmm1
	jmp	.L381
.LBE2069:
.LBE2190:
.LBE2213:
.LBE2236:
.LBE2259:
.LBE2278:
.LBE2281:
.LBE2284:
	.cfi_endproc
.LFE2314:
	.size	_ZN12FieldDataCPU7intrpETILi2EL15FieldData_deriv0EEEddddiii, .-_ZN12FieldDataCPU7intrpETILi2EL15FieldData_deriv0EEEddddiii
	.section	.text._ZN12FieldDataCPU7intrpETILi0EL15FieldData_deriv1EEEddddiii,"axG",@progbits,_ZN12FieldDataCPU7intrpETILi0EL15FieldData_deriv1EEEddddiii,comdat
	.align 2
	.p2align 4,,15
	.weak	_ZN12FieldDataCPU7intrpETILi0EL15FieldData_deriv1EEEddddiii
	.type	_ZN12FieldDataCPU7intrpETILi0EL15FieldData_deriv1EEEddddiii, @function
_ZN12FieldDataCPU7intrpETILi0EL15FieldData_deriv1EEEddddiii:
.LFB2315:
	.loc 3 253 0
	.cfi_startproc
.LVL671:
	pushq	%r15
	.cfi_def_cfa_offset 16
	.cfi_offset 15, -16
	pushq	%r14
	.cfi_def_cfa_offset 24
	.cfi_offset 14, -24
	pushq	%r13
	.cfi_def_cfa_offset 32
	.cfi_offset 13, -32
	pushq	%r12
	.cfi_def_cfa_offset 40
	.cfi_offset 12, -40
	pushq	%rbp
	.cfi_def_cfa_offset 48
	.cfi_offset 6, -48
	pushq	%rbx
	.cfi_def_cfa_offset 56
	.cfi_offset 3, -56
.LBB2313:
.LBB2314:
	.loc 3 257 0
	cmpl	$1, 92(%rdi)
.LBE2314:
.LBE2313:
	.loc 3 253 0
	vmovsd	%xmm2, -8(%rsp)
.LBB2736:
.LBB2730:
	.loc 3 257 0
	je	.L457
	movl	72(%rdi), %ebp
	movl	%esi, %r10d
	movl	80(%rdi), %r8d
	vxorpd	%xmm5, %xmm5, %xmm5
	movl	76(%rdi), %r9d
	vmovsd	.LC12(%rip), %xmm3
.LBB2315:
.LBB2316:
.LBB2317:
.LBB2318:
.LBB2319:
.LBB2320:
	.loc 4 56 0
	vmovss	.LC11(%rip), %xmm10
.LBE2320:
.LBE2319:
.LBE2318:
.LBE2317:
.LBE2316:
.LBE2315:
	.loc 3 257 0
	leal	-1(%rbp), %ebx
	movl	%r8d, %r13d
	movl	%r8d, -12(%rsp)
	vsubsd	%xmm0, %xmm5, %xmm2
.LVL672:
	vxorps	%xmm11, %xmm11, %xmm11
	andl	%ebx, %r10d
	vsubsd	%xmm0, %xmm3, %xmm0
.LVL673:
	subl	$1, %r13d
	addl	%ebp, %r10d
	leal	-1(%r9), %eax
.LBB2645:
.LBB2623:
.LBB2601:
.LBB2579:
.LBB2337:
.LBB2321:
	.loc 4 56 0
	vmovss	.LC19(%rip), %xmm3
.LBE2321:
.LBE2337:
.LBE2579:
.LBE2601:
.LBE2623:
.LBE2645:
	.loc 3 257 0
	andl	%ebx, %r10d
.LBB2646:
.LBB2624:
.LBB2602:
.LBB2580:
	.loc 3 324 0
	vmovsd	.LC2(%rip), %xmm15
.LBE2580:
.LBE2602:
.LBE2624:
.LBE2646:
	.loc 3 257 0
	movl	%r10d, %r8d
	vmovddup	%xmm2, %xmm2
	sall	$16, %r8d
	vmovddup	%xmm0, %xmm0
	orl	%r10d, %r8d
	vmovsd	96(%rdi), %xmm4
	andl	$50331903, %r8d
	movq	16(%rdi), %rdi
.LVL674:
	movl	%r8d, %r10d
	sall	$8, %r10d
	orl	%r8d, %r10d
	andl	$50393103, %r10d
	vcvtpd2psx	%xmm2, %xmm2
	movl	%r10d, %r8d
	sall	$4, %r8d
	orl	%r10d, %r8d
	andl	$51130563, %r8d
	leal	0(,%r8,4), %r11d
	vcvtpd2psx	%xmm0, %xmm0
	orl	%r8d, %r11d
	xorl	%r8d, %r8d
	andl	$153391689, %r11d
.LBB2647:
.LBB2625:
.LBB2603:
.LBB2581:
.LBB2338:
.LBB2322:
	.loc 4 56 0
	vmovaps	%xmm2, %xmm8
.LBE2322:
.LBE2338:
.LBE2581:
.LBE2603:
.LBE2625:
.LBE2647:
	.loc 3 257 0
	vucomiss	%xmm11, %xmm2
.LBB2648:
.LBB2626:
.LBB2604:
.LBB2582:
.LBB2339:
.LBB2323:
	.loc 4 56 0
	vandps	%xmm10, %xmm8, %xmm8
.LBE2323:
.LBE2339:
.LBE2582:
.LBE2604:
.LBE2626:
.LBE2648:
	.loc 3 257 0
	seta	%r8b
	xorl	%r10d, %r10d
	vucomiss	%xmm2, %xmm11
.LBB2649:
.LBB2627:
.LBB2605:
.LBB2583:
.LBB2340:
.LBB2324:
	.loc 4 56 0
	vmovss	.LC13(%rip), %xmm2
	vcmpngess	%xmm8, %xmm2, %xmm8
.LBE2324:
.LBE2340:
.LBE2583:
.LBE2605:
.LBE2627:
.LBE2649:
	.loc 3 257 0
	seta	%r10b
.LBB2650:
.LBB2628:
.LBB2606:
.LBB2584:
.LBB2341:
.LBB2325:
	.loc 4 56 0
	vandps	%xmm8, %xmm11, %xmm9
.LBE2325:
.LBE2341:
.LBE2584:
.LBE2606:
.LBE2628:
.LBE2650:
	.loc 3 257 0
	subl	%r10d, %r8d
.LBB2651:
.LBB2629:
.LBB2607:
.LBB2585:
.LBB2342:
.LBB2326:
	.loc 4 56 0
	vandnps	%xmm2, %xmm8, %xmm8
.LBE2326:
.LBE2342:
.LBE2585:
.LBE2607:
.LBE2629:
.LBE2651:
	.loc 3 257 0
	vcvtsi2ss	%r8d, %xmm7, %xmm7
	xorl	%r8d, %r8d
	vucomiss	%xmm11, %xmm0
.LBB2652:
.LBB2630:
.LBB2608:
.LBB2586:
.LBB2343:
.LBB2327:
	.loc 4 56 0
	vorps	%xmm9, %xmm8, %xmm12
.LBE2327:
.LBE2343:
	.loc 3 324 0
	vmovsd	.LC17(%rip), %xmm8
.LBB2344:
.LBB2345:
	.loc 4 39 0
	vmovss	.LC16(%rip), %xmm9
.LBE2345:
.LBE2344:
.LBE2586:
.LBE2608:
.LBE2630:
.LBE2652:
	.loc 3 257 0
	seta	%r8b
	xorl	%r10d, %r10d
.LBB2653:
.LBB2631:
.LBB2609:
.LBB2587:
	.loc 3 324 0
	vsubsd	%xmm1, %xmm8, %xmm8
.LBE2587:
.LBE2609:
.LBE2631:
.LBE2653:
	.loc 3 257 0
	vucomiss	%xmm0, %xmm11
.LBB2654:
.LBB2632:
.LBB2610:
.LBB2588:
.LBB2369:
.LBB2328:
	.loc 4 56 0
	vandps	%xmm10, %xmm0, %xmm0
.LBE2328:
.LBE2369:
	.loc 3 336 0
	vmovddup	%xmm8, %xmm8
.LBE2588:
.LBE2610:
.LBE2632:
.LBE2654:
	.loc 3 257 0
	seta	%r10b
.LBB2655:
.LBB2633:
.LBB2611:
.LBB2589:
.LBB2370:
.LBB2371:
	.loc 3 158 0
	addl	$1, %esi
.LVL675:
.LBE2371:
.LBE2370:
.LBB2472:
.LBB2329:
	.loc 4 56 0
	vcmpngess	%xmm0, %xmm2, %xmm0
.LBE2329:
.LBE2472:
.LBB2473:
.LBB2434:
	.loc 3 158 0
	andl	%ebx, %esi
.LVL676:
.LBE2434:
.LBE2473:
.LBE2589:
.LBE2611:
.LBE2633:
.LBE2655:
	.loc 3 257 0
	subl	%r10d, %r8d
.LBB2656:
.LBB2634:
.LBB2612:
.LBB2590:
.LBB2474:
.LBB2435:
	.loc 3 158 0
	addl	%ebp, %esi
.LBE2435:
.LBE2474:
.LBE2590:
.LBE2612:
.LBE2634:
.LBE2656:
	.loc 3 257 0
	vcvtsi2ss	%r8d, %xmm6, %xmm6
.LBB2657:
.LBB2635:
.LBB2613:
.LBB2591:
.LBB2475:
.LBB2436:
	.loc 3 158 0
	andl	%ebx, %esi
.LBE2436:
.LBE2475:
.LBB2476:
.LBB2330:
	.loc 4 56 0
	vandps	%xmm0, %xmm11, %xmm11
.LBE2330:
.LBE2476:
.LBB2477:
.LBB2437:
.LBB2372:
.LBB2373:
	.loc 3 14 0
	movl	%esi, %r10d
.LBE2373:
.LBE2372:
.LBE2437:
.LBE2477:
.LBB2478:
.LBB2331:
	.loc 4 56 0
	vandnps	%xmm2, %xmm0, %xmm0
.LBE2331:
.LBE2478:
.LBB2479:
.LBB2438:
.LBB2404:
.LBB2374:
	.loc 3 14 0
	sall	$16, %r10d
.LBE2374:
.LBE2404:
.LBE2438:
.LBE2479:
.LBB2480:
.LBB2332:
	.loc 4 56 0
	vxorps	%xmm3, %xmm7, %xmm7
.LBE2332:
.LBE2480:
.LBB2481:
.LBB2439:
.LBB2405:
.LBB2375:
	.loc 3 14 0
	orl	%esi, %r10d
	vmovss	.LC15(%rip), %xmm2
	andl	$50331903, %r10d
.LBE2375:
.LBE2405:
.LBE2439:
.LBE2481:
.LBB2482:
.LBB2333:
	.loc 4 56 0
	vorps	%xmm11, %xmm0, %xmm11
.LBE2333:
.LBE2482:
.LBB2483:
.LBB2440:
.LBB2406:
.LBB2376:
	.loc 3 15 0
	movl	%r10d, %r8d
.LBE2376:
.LBE2406:
.LBE2440:
.LBE2483:
.LBB2484:
.LBB2334:
	.loc 4 56 0
	vmulss	%xmm12, %xmm7, %xmm12
.LBE2334:
.LBE2484:
	.loc 3 324 0
	vsubsd	%xmm1, %xmm15, %xmm7
.LBB2485:
.LBB2441:
.LBB2407:
.LBB2377:
	.loc 3 15 0
	sall	$8, %r8d
.LBE2377:
.LBE2407:
.LBE2441:
.LBE2485:
	.loc 3 336 0
	vmovapd	%xmm5, %xmm0
.LBB2486:
.LBB2442:
.LBB2408:
.LBB2378:
	.loc 3 15 0
	orl	%r10d, %r8d
	andl	$50393103, %r8d
	.loc 3 16 0
	movl	%r8d, %esi
.LBE2378:
.LBE2408:
.LBE2442:
.LBE2486:
	.loc 3 336 0
	vmovddup	%xmm7, %xmm7
.LBB2487:
.LBB2443:
.LBB2409:
.LBB2379:
	.loc 3 16 0
	sall	$4, %esi
.LBE2379:
.LBE2409:
.LBE2443:
.LBE2487:
.LBB2488:
.LBB2335:
	.loc 4 56 0
	vxorps	%xmm3, %xmm6, %xmm6
.LBE2335:
.LBE2488:
.LBB2489:
.LBB2444:
.LBB2410:
.LBB2380:
	.loc 3 16 0
	orl	%r8d, %esi
.LBE2380:
.LBE2410:
.LBE2444:
.LBE2489:
	.loc 3 336 0
	vunpcklps	%xmm12, %xmm12, %xmm12
.LBB2490:
.LBB2445:
.LBB2411:
.LBB2381:
	.loc 3 16 0
	andl	$51130563, %esi
	vmovss	.LC14(%rip), %xmm3
	.loc 3 17 0
	leal	0(,%rsi,4), %r10d
.LBE2381:
.LBE2411:
.LBE2445:
.LBE2490:
.LBB2491:
.LBB2336:
	.loc 4 56 0
	vmulss	%xmm11, %xmm6, %xmm11
.LBE2336:
.LBE2491:
	.loc 3 324 0
	vmovsd	.LC18(%rip), %xmm6
.LBB2492:
.LBB2446:
.LBB2412:
.LBB2382:
	.loc 3 17 0
	orl	%esi, %r10d
.LBE2382:
.LBE2412:
.LBE2446:
.LBE2492:
	.loc 3 336 0
	movl	$-1, %esi
	.loc 3 321 0
	leal	(%rdx,%rsi), %ebx
.LBB2493:
.LBB2447:
.LBB2413:
.LBB2383:
	.loc 3 17 0
	andl	$153391689, %r10d
.LBE2383:
.LBE2413:
.LBE2447:
.LBE2493:
	.loc 3 324 0
	vsubsd	%xmm1, %xmm6, %xmm6
	.loc 3 336 0
	vcvtpd2psx	%xmm8, %xmm8
.LBB2494:
.LBB2448:
	.loc 3 159 0
	andl	%eax, %ebx
	addl	%r9d, %ebx
.LBE2448:
.LBE2494:
	.loc 3 336 0
	vunpcklps	%xmm11, %xmm11, %xmm11
.LBB2495:
.LBB2449:
	.loc 3 159 0
	andl	%eax, %ebx
.LBE2449:
.LBE2495:
	.loc 3 336 0
	vmovddup	%xmm6, %xmm6
.LBB2496:
.LBB2450:
.LBB2414:
.LBB2384:
	.loc 3 19 0
	movl	%ebx, %r8d
.LBE2384:
.LBE2414:
.LBE2450:
.LBE2496:
	.loc 3 336 0
	vcvtps2pd	%xmm12, %xmm12
.LBB2497:
.LBB2451:
.LBB2415:
.LBB2385:
	.loc 3 19 0
	sall	$16, %r8d
	orl	%ebx, %r8d
.LBE2385:
.LBE2415:
.LBE2451:
.LBE2497:
	.loc 3 336 0
	vcvtps2pd	%xmm11, %xmm11
.LBB2498:
.LBB2452:
.LBB2416:
.LBB2386:
	.loc 3 19 0
	andl	$50331903, %r8d
	.loc 3 20 0
	movl	%r8d, %ebx
.LBE2386:
.LBE2416:
.LBE2452:
.LBE2498:
.LBB2499:
.LBB2346:
	.loc 4 35 0
	vandps	%xmm10, %xmm8, %xmm8
.LBE2346:
.LBE2499:
.LBB2500:
.LBB2453:
.LBB2417:
.LBB2387:
	.loc 3 20 0
	sall	$8, %ebx
	orl	%r8d, %ebx
	andl	$50393103, %ebx
	.loc 3 21 0
	movl	%ebx, %r8d
	sall	$4, %r8d
	orl	%ebx, %r8d
.LBE2387:
.LBE2417:
	.loc 3 159 0
	movl	%edx, %ebx
.LBB2418:
.LBB2388:
	.loc 3 21 0
	andl	$51130563, %r8d
.LBE2388:
.LBE2418:
	.loc 3 159 0
	andl	%eax, %ebx
.LBB2419:
.LBB2389:
	.loc 3 22 0
	leal	0(,%r8,4), %r12d
.LBE2389:
.LBE2419:
	.loc 3 159 0
	addl	%r9d, %ebx
.LBE2453:
.LBE2500:
	.loc 3 336 0
	vcvtpd2psx	%xmm7, %xmm7
.LBB2501:
.LBB2454:
.LBB2420:
.LBB2390:
	.loc 3 22 0
	orl	%r8d, %r12d
	andl	$153391689, %r12d
	.loc 3 29 0
	addl	%r12d, %r12d
.LBE2390:
.LBE2420:
	.loc 3 159 0
	andl	%eax, %ebx
.LBE2454:
.LBE2501:
	.loc 3 321 0
	addl	$1, %edx
.LVL677:
.LBB2502:
.LBB2455:
	.loc 3 159 0
	andl	%eax, %edx
.LVL678:
.LBB2421:
.LBB2391:
	.loc 3 19 0
	movl	%ebx, %r8d
.LBE2391:
.LBE2421:
	.loc 3 159 0
	addl	%edx, %r9d
.LBB2422:
.LBB2392:
	.loc 3 19 0
	sall	$16, %r8d
.LBE2392:
.LBE2422:
	.loc 3 159 0
	andl	%eax, %r9d
.LBB2423:
.LBB2393:
	.loc 3 19 0
	orl	%ebx, %r8d
	movl	%r9d, %eax
	andl	$50331903, %r8d
	sall	$16, %eax
	.loc 3 20 0
	movl	%r8d, %ebx
	.loc 3 19 0
	orl	%r9d, %eax
	.loc 3 20 0
	sall	$8, %ebx
	.loc 3 19 0
	andl	$50331903, %eax
	.loc 3 20 0
	orl	%r8d, %ebx
	movl	%eax, %edx
	andl	$50393103, %ebx
	sall	$8, %edx
	.loc 3 21 0
	movl	%ebx, %r8d
	.loc 3 20 0
	orl	%eax, %edx
	.loc 3 21 0
	sall	$4, %r8d
.LBE2393:
.LBE2423:
.LBE2455:
.LBE2502:
	.loc 3 336 0
	vcvtpd2psx	%xmm6, %xmm6
.LBB2503:
.LBB2456:
.LBB2424:
.LBB2394:
	.loc 3 20 0
	andl	$50393103, %edx
	.loc 3 21 0
	orl	%ebx, %r8d
	movl	%edx, %eax
	andl	$51130563, %r8d
	sall	$4, %eax
	.loc 3 22 0
	leal	0(,%r8,4), %ebp
	.loc 3 21 0
	orl	%edx, %eax
.LBE2394:
.LBE2424:
.LBE2456:
.LBE2503:
.LBB2504:
.LBB2347:
	.loc 4 35 0
	vandps	%xmm10, %xmm7, %xmm7
.LBE2347:
.LBE2504:
.LBB2505:
.LBB2457:
.LBB2425:
.LBB2395:
	.loc 3 21 0
	andl	$51130563, %eax
	.loc 3 22 0
	orl	%r8d, %ebp
	leal	0(,%rax,4), %ebx
	andl	$153391689, %ebp
	.loc 3 29 0
	addl	%ebp, %ebp
	.loc 3 22 0
	orl	%eax, %ebx
.LBE2395:
.LBE2425:
.LBE2457:
.LBE2505:
.LBB2506:
.LBB2348:
	.loc 4 35 0
	vandps	%xmm10, %xmm6, %xmm6
.LBE2348:
.LBE2506:
.LBB2507:
.LBB2458:
.LBB2426:
.LBB2396:
	.loc 3 22 0
	andl	$153391689, %ebx
	.loc 3 29 0
	addl	%ebx, %ebx
.LVL679:
.L462:
.LBE2396:
.LBE2426:
.LBE2458:
.LBE2507:
.LBE2591:
.LBE2613:
.LBE2635:
	.loc 3 313 0 discriminator 1
	vcvtsi2sd	%esi, %xmm1, %xmm1
	.loc 3 253 0 discriminator 1
	leal	(%rsi,%rcx), %edx
	.loc 3 313 0 discriminator 1
	andl	%r13d, %edx
	addl	-12(%rsp), %edx
	andl	%r13d, %edx
	movl	%edx, %eax
	sall	$16, %eax
	orl	%edx, %eax
	andl	$50331903, %eax
	vaddsd	.LC2(%rip), %xmm1, %xmm1
	movl	%eax, %edx
	sall	$8, %edx
	orl	%eax, %edx
	andl	$50393103, %edx
	movl	%edx, %eax
	sall	$4, %eax
	vsubsd	-8(%rsp), %xmm1, %xmm1
	orl	%edx, %eax
	andl	$51130563, %eax
	leal	0(,%rax,4), %edx
	orl	%eax, %edx
	andl	$153391689, %edx
	vmovddup	%xmm1, %xmm1
	sall	$2, %edx
	movl	%edx, %r8d
	orl	%r11d, %r8d
	vcvtpd2psx	%xmm1, %xmm1
.LBB2636:
.LBB2614:
.LBB2592:
.LBB2508:
.LBB2459:
.LBB2427:
.LBB2397:
	.loc 3 29 0 discriminator 1
	movl	%r8d, %r14d
.LBE2397:
.LBE2427:
.LBE2459:
.LBE2508:
.LBE2592:
.LBE2614:
.LBE2636:
	.loc 3 313 0 discriminator 1
	vandps	%xmm10, %xmm1, %xmm1
	vucomiss	%xmm1, %xmm2
	setae	%al
.LBB2637:
.LBB2615:
.LBB2593:
.LBB2509:
.LBB2510:
	.loc 4 41 0 discriminator 1
	vucomiss	%xmm1, %xmm3
	setae	%r9b
.LBE2510:
.LBE2509:
.LBB2529:
.LBB2460:
.LBB2428:
.LBB2398:
	.loc 3 29 0 discriminator 1
	orl	%r12d, %r14d
	orl	%r10d, %edx
.LVL680:
.LBE2398:
.LBE2428:
.LBE2460:
.LBE2529:
.LBB2530:
.LBB2349:
	.loc 4 37 0 discriminator 1
	vucomiss	%xmm8, %xmm2
.LBE2349:
.LBE2530:
.LBB2531:
.LBB2461:
	.loc 3 166 0 discriminator 1
	movslq	%r14d, %r14
.LBE2461:
.LBE2531:
	.loc 3 336 0 discriminator 1
	vmulsd	(%rdi,%r14,8), %xmm12, %xmm14
.LVL681:
.LBB2532:
.LBB2350:
	.loc 4 37 0 discriminator 1
	setae	%r14b
	jae	.L477
	.loc 4 41 0
	vucomiss	%xmm8, %xmm3
	vmovapd	%xmm5, %xmm13
	jb	.L478
	.loc 4 43 0
	vsubss	%xmm8, %xmm3, %xmm13
.LVL682:
	vmulss	%xmm2, %xmm13, %xmm15
	vmulss	%xmm15, %xmm13, %xmm13
.LVL683:
	vunpcklps	%xmm13, %xmm13, %xmm13
	vcvtps2pd	%xmm13, %xmm13
.L478:
.LBE2350:
.LBE2532:
.LBB2533:
.LBB2511:
	.loc 4 37 0
	testb	%al, %al
.LBE2511:
.LBE2533:
	.loc 3 336 0
	vmulsd	%xmm13, %xmm14, %xmm13
.LVL684:
.LBB2534:
.LBB2512:
	.loc 4 37 0
	je	.L480
.LVL685:
	.loc 4 39 0
	vmulss	%xmm1, %xmm1, %xmm14
	vmovss	.LC16(%rip), %xmm15
	vsubss	%xmm14, %xmm15, %xmm14
	.loc 4 37 0
	vunpcklps	%xmm14, %xmm14, %xmm14
	vcvtps2pd	%xmm14, %xmm14
.LVL686:
.L481:
.LBE2512:
.LBE2534:
	.loc 3 336 0
	vmulsd	%xmm14, %xmm13, %xmm13
.LBB2535:
.LBB2462:
.LBB2429:
.LBB2399:
	.loc 3 29 0
	movl	%edx, %r15d
	orl	%r12d, %r15d
.LBE2399:
.LBE2429:
.LBE2462:
.LBE2535:
.LBB2536:
.LBB2351:
	.loc 4 37 0
	testb	%r14b, %r14b
.LBE2351:
.LBE2536:
.LBB2537:
.LBB2463:
	.loc 3 166 0
	movslq	%r15d, %r15
.LBE2463:
.LBE2537:
	.loc 3 336 0
	vmulsd	(%rdi,%r15,8), %xmm11, %xmm14
	vdivsd	%xmm4, %xmm13, %xmm13
	vaddsd	%xmm0, %xmm13, %xmm0
.LVL687:
.LBB2538:
.LBB2352:
	.loc 4 37 0
	jne	.L482
	.loc 4 41 0
	vucomiss	%xmm8, %xmm3
	vmovapd	%xmm5, %xmm13
	jb	.L483
	.loc 4 43 0
	vsubss	%xmm8, %xmm3, %xmm13
.LVL688:
	vmulss	%xmm2, %xmm13, %xmm15
	vmulss	%xmm15, %xmm13, %xmm13
.LVL689:
	vunpcklps	%xmm13, %xmm13, %xmm13
	vcvtps2pd	%xmm13, %xmm13
.L483:
.LBE2352:
.LBE2538:
.LBB2539:
.LBB2513:
	.loc 4 37 0
	testb	%al, %al
.LBE2513:
.LBE2539:
	.loc 3 336 0
	vmulsd	%xmm13, %xmm14, %xmm13
.LVL690:
.LBB2540:
.LBB2514:
	.loc 4 37 0
	je	.L485
.LVL691:
	.loc 4 39 0
	vmulss	%xmm1, %xmm1, %xmm14
	vmovss	.LC16(%rip), %xmm15
	vsubss	%xmm14, %xmm15, %xmm14
	.loc 4 37 0
	vunpcklps	%xmm14, %xmm14, %xmm14
	vcvtps2pd	%xmm14, %xmm14
.LVL692:
.L486:
.LBE2514:
.LBE2540:
	.loc 3 336 0
	vmulsd	%xmm14, %xmm13, %xmm13
.LBB2541:
.LBB2464:
.LBB2430:
.LBB2400:
	.loc 3 29 0
	movl	%r8d, %r14d
	orl	%ebp, %r14d
.LBE2400:
.LBE2430:
.LBE2464:
.LBE2541:
.LBB2542:
.LBB2353:
	.loc 4 37 0
	vucomiss	%xmm7, %xmm2
.LBE2353:
.LBE2542:
.LBB2543:
.LBB2465:
	.loc 3 166 0
	movslq	%r14d, %r14
.LBE2465:
.LBE2543:
	.loc 3 336 0
	vdivsd	%xmm4, %xmm13, %xmm13
	vmulsd	(%rdi,%r14,8), %xmm12, %xmm14
.LBB2544:
.LBB2354:
	.loc 4 37 0
	setae	%r14b
.LBE2354:
.LBE2544:
	.loc 3 336 0
	vaddsd	%xmm13, %xmm0, %xmm13
.LVL693:
.LBB2545:
.LBB2355:
	.loc 4 37 0
	jae	.L487
	.loc 4 41 0
	vucomiss	%xmm7, %xmm3
	vmovapd	%xmm5, %xmm0
	jb	.L488
	.loc 4 43 0
	vsubss	%xmm7, %xmm3, %xmm0
.LVL694:
	vmulss	%xmm2, %xmm0, %xmm15
	vmulss	%xmm15, %xmm0, %xmm0
.LVL695:
	vunpcklps	%xmm0, %xmm0, %xmm0
	vcvtps2pd	%xmm0, %xmm0
.L488:
.LBE2355:
.LBE2545:
.LBB2546:
.LBB2515:
	.loc 4 37 0
	testb	%al, %al
.LBE2515:
.LBE2546:
	.loc 3 336 0
	vmulsd	%xmm0, %xmm14, %xmm0
.LVL696:
.LBB2547:
.LBB2516:
	.loc 4 37 0
	je	.L490
.LVL697:
	.loc 4 39 0
	vmulss	%xmm1, %xmm1, %xmm14
	vmovss	.LC16(%rip), %xmm15
	vsubss	%xmm14, %xmm15, %xmm14
	.loc 4 37 0
	vunpcklps	%xmm14, %xmm14, %xmm14
	vcvtps2pd	%xmm14, %xmm14
.LVL698:
.L491:
.LBE2516:
.LBE2547:
	.loc 3 336 0
	vmulsd	%xmm14, %xmm0, %xmm0
.LBB2548:
.LBB2466:
.LBB2431:
.LBB2401:
	.loc 3 29 0
	movl	%edx, %r15d
	orl	%ebp, %r15d
.LBE2401:
.LBE2431:
.LBE2466:
.LBE2548:
.LBB2549:
.LBB2356:
	.loc 4 37 0
	testb	%r14b, %r14b
.LBE2356:
.LBE2549:
.LBB2550:
.LBB2467:
	.loc 3 166 0
	movslq	%r15d, %r15
.LBE2467:
.LBE2550:
	.loc 3 336 0
	vmulsd	(%rdi,%r15,8), %xmm11, %xmm14
	vdivsd	%xmm4, %xmm0, %xmm0
	vaddsd	%xmm13, %xmm0, %xmm0
.LVL699:
.LBB2551:
.LBB2357:
	.loc 4 37 0
	jne	.L492
	.loc 4 41 0
	vucomiss	%xmm7, %xmm3
	vmovapd	%xmm5, %xmm13
	jb	.L493
	.loc 4 43 0
	vsubss	%xmm7, %xmm3, %xmm13
.LVL700:
	vmulss	%xmm2, %xmm13, %xmm15
	vmulss	%xmm15, %xmm13, %xmm13
.LVL701:
	vunpcklps	%xmm13, %xmm13, %xmm13
	vcvtps2pd	%xmm13, %xmm13
.L493:
.LBE2357:
.LBE2551:
.LBB2552:
.LBB2517:
	.loc 4 37 0
	testb	%al, %al
.LBE2517:
.LBE2552:
	.loc 3 336 0
	vmulsd	%xmm13, %xmm14, %xmm13
.LVL702:
.LBB2553:
.LBB2518:
	.loc 4 37 0
	je	.L495
.LVL703:
	.loc 4 39 0
	vmulss	%xmm1, %xmm1, %xmm14
	vmovss	.LC16(%rip), %xmm15
	vsubss	%xmm14, %xmm15, %xmm14
	.loc 4 37 0
	vunpcklps	%xmm14, %xmm14, %xmm14
	vcvtps2pd	%xmm14, %xmm14
.LVL704:
.L496:
.LBE2518:
.LBE2553:
	.loc 3 336 0
	vmulsd	%xmm14, %xmm13, %xmm14
.LBB2554:
.LBB2468:
.LBB2432:
.LBB2402:
	.loc 3 29 0
	orl	%ebx, %r8d
.LBE2402:
.LBE2432:
.LBE2468:
.LBE2554:
.LBB2555:
.LBB2358:
	.loc 4 37 0
	vucomiss	%xmm6, %xmm2
.LBE2358:
.LBE2555:
.LBB2556:
.LBB2469:
	.loc 3 166 0
	movslq	%r8d, %r8
.LBE2469:
.LBE2556:
	.loc 3 336 0
	vmulsd	(%rdi,%r8,8), %xmm12, %xmm13
	vdivsd	%xmm4, %xmm14, %xmm14
.LBB2557:
.LBB2359:
	.loc 4 37 0
	setae	%r8b
.LBE2359:
.LBE2557:
	.loc 3 336 0
	vaddsd	%xmm14, %xmm0, %xmm14
.LVL705:
.LBB2558:
.LBB2360:
	.loc 4 37 0
	jb	.L525
.LVL706:
	.loc 4 39 0
	vmulss	%xmm6, %xmm6, %xmm0
	vmovss	.LC16(%rip), %xmm15
	vsubss	%xmm0, %xmm15, %xmm0
	.loc 4 43 0
	vunpcklps	%xmm0, %xmm0, %xmm0
	vcvtps2pd	%xmm0, %xmm0
.L468:
.LBE2360:
.LBE2558:
.LBB2559:
.LBB2519:
	.loc 4 37 0
	testb	%al, %al
.LBE2519:
.LBE2559:
	.loc 3 336 0
	vmulsd	%xmm0, %xmm13, %xmm13
.LVL707:
.LBB2560:
.LBB2520:
	.loc 4 37 0
	jne	.L470
	.loc 4 41 0
	testb	%r9b, %r9b
	vmovapd	%xmm5, %xmm0
	je	.L471
	.loc 4 43 0
	vsubss	%xmm1, %xmm3, %xmm0
.LVL708:
	vmulss	%xmm2, %xmm0, %xmm15
	vmulss	%xmm15, %xmm0, %xmm0
.LVL709:
	vunpcklps	%xmm0, %xmm0, %xmm0
	vcvtps2pd	%xmm0, %xmm0
.L471:
.LBE2520:
.LBE2560:
	.loc 3 336 0
	vmulsd	%xmm0, %xmm13, %xmm0
.LBB2561:
.LBB2470:
.LBB2433:
.LBB2403:
	.loc 3 29 0
	orl	%ebx, %edx
.LBE2403:
.LBE2433:
.LBE2470:
.LBE2561:
.LBB2562:
.LBB2361:
	.loc 4 37 0
	testb	%r8b, %r8b
.LBE2361:
.LBE2562:
.LBB2563:
.LBB2471:
	.loc 3 166 0
	movslq	%edx, %rdx
.LBE2471:
.LBE2563:
	.loc 3 336 0
	vdivsd	%xmm4, %xmm0, %xmm0
	vaddsd	%xmm14, %xmm0, %xmm14
.LVL710:
	vmulsd	(%rdi,%rdx,8), %xmm11, %xmm0
.LVL711:
.LBB2564:
.LBB2362:
	.loc 4 37 0
	jne	.L472
	.loc 4 41 0
	vucomiss	%xmm6, %xmm3
	vmovapd	%xmm5, %xmm13
	jb	.L473
	.loc 4 43 0
	vsubss	%xmm6, %xmm3, %xmm13
.LVL712:
	vmulss	%xmm2, %xmm13, %xmm15
	vmulss	%xmm15, %xmm13, %xmm13
.LVL713:
	vunpcklps	%xmm13, %xmm13, %xmm13
	vcvtps2pd	%xmm13, %xmm13
.L473:
.LBE2362:
.LBE2564:
.LBB2565:
.LBB2521:
	.loc 4 37 0
	testb	%al, %al
.LBE2521:
.LBE2565:
	.loc 3 336 0
	vmulsd	%xmm13, %xmm0, %xmm0
.LVL714:
.LBB2566:
.LBB2522:
	.loc 4 37 0
	jne	.L475
	.loc 4 41 0
	testb	%r9b, %r9b
	vmovapd	%xmm5, %xmm13
	je	.L476
	.loc 4 43 0
	vsubss	%xmm1, %xmm3, %xmm1
.LVL715:
	vmulss	%xmm2, %xmm1, %xmm13
	vmulss	%xmm13, %xmm1, %xmm1
.LVL716:
	vunpcklps	%xmm1, %xmm1, %xmm1
	vcvtps2pd	%xmm1, %xmm13
.L476:
.LBE2522:
.LBE2566:
	.loc 3 336 0
	vmulsd	%xmm13, %xmm0, %xmm0
.LBE2593:
.LBE2615:
.LBE2637:
	.loc 3 313 0
	addl	$1, %esi
	cmpl	$2, %esi
.LBB2638:
.LBB2616:
.LBB2594:
	.loc 3 336 0
	vdivsd	%xmm4, %xmm0, %xmm0
	vaddsd	%xmm0, %xmm14, %xmm0
.LVL717:
.LBE2594:
.LBE2616:
.LBE2638:
	.loc 3 313 0
	jne	.L462
.LBE2657:
.LBE2730:
.LBE2736:
	.loc 3 434 0
	popq	%rbx
	.cfi_remember_state
	.cfi_def_cfa_offset 48
	popq	%rbp
	.cfi_def_cfa_offset 40
	popq	%r12
	.cfi_def_cfa_offset 32
	popq	%r13
	.cfi_def_cfa_offset 24
	popq	%r14
	.cfi_def_cfa_offset 16
	popq	%r15
	.cfi_def_cfa_offset 8
	ret
.LVL718:
	.p2align 4,,10
	.p2align 3
.L475:
	.cfi_restore_state
.LBB2737:
.LBB2731:
.LBB2658:
.LBB2639:
.LBB2617:
.LBB2595:
.LBB2567:
.LBB2523:
	.loc 4 39 0
	vmulss	%xmm1, %xmm1, %xmm1
.LVL719:
	vmovss	.LC16(%rip), %xmm15
	vsubss	%xmm1, %xmm15, %xmm13
.LVL720:
	.loc 4 43 0
	vunpcklps	%xmm13, %xmm13, %xmm13
.LVL721:
	vcvtps2pd	%xmm13, %xmm13
	jmp	.L476
.LVL722:
	.p2align 4,,10
	.p2align 3
.L472:
.LBE2523:
.LBE2567:
.LBB2568:
.LBB2363:
	.loc 4 39 0
	vmulss	%xmm6, %xmm6, %xmm13
	vmovss	.LC16(%rip), %xmm15
	vsubss	%xmm13, %xmm15, %xmm13
	.loc 4 43 0
	vunpcklps	%xmm13, %xmm13, %xmm13
	vcvtps2pd	%xmm13, %xmm13
	jmp	.L473
.LVL723:
	.p2align 4,,10
	.p2align 3
.L470:
.LBE2363:
.LBE2568:
.LBB2569:
.LBB2524:
	.loc 4 39 0
	vmulss	%xmm1, %xmm1, %xmm0
	vmovss	.LC16(%rip), %xmm15
	vsubss	%xmm0, %xmm15, %xmm0
	.loc 4 43 0
	vunpcklps	%xmm0, %xmm0, %xmm0
	vcvtps2pd	%xmm0, %xmm0
	jmp	.L471
.LVL724:
	.p2align 4,,10
	.p2align 3
.L525:
.LBE2524:
.LBE2569:
.LBB2570:
.LBB2364:
	.loc 4 41 0
	vucomiss	%xmm6, %xmm3
	vmovapd	%xmm5, %xmm0
	jb	.L468
	.loc 4 43 0
	vsubss	%xmm6, %xmm3, %xmm0
.LVL725:
	vmulss	%xmm2, %xmm0, %xmm15
	vmulss	%xmm15, %xmm0, %xmm0
.LVL726:
	vunpcklps	%xmm0, %xmm0, %xmm0
	vcvtps2pd	%xmm0, %xmm0
	jmp	.L468
.LVL727:
	.p2align 4,,10
	.p2align 3
.L495:
.LBE2364:
.LBE2570:
.LBB2571:
.LBB2525:
	.loc 4 41 0
	testb	%r9b, %r9b
	vmovapd	%xmm5, %xmm14
	je	.L496
	.loc 4 43 0
	vsubss	%xmm1, %xmm3, %xmm14
.LVL728:
	vmulss	%xmm2, %xmm14, %xmm15
	vmulss	%xmm15, %xmm14, %xmm14
.LVL729:
	vunpcklps	%xmm14, %xmm14, %xmm14
	vcvtps2pd	%xmm14, %xmm14
	jmp	.L496
.LVL730:
	.p2align 4,,10
	.p2align 3
.L492:
.LBE2525:
.LBE2571:
.LBB2572:
.LBB2365:
	.loc 4 39 0
	vmulss	%xmm7, %xmm7, %xmm13
	vmovss	.LC16(%rip), %xmm15
	vsubss	%xmm13, %xmm15, %xmm13
	.loc 4 43 0
	vunpcklps	%xmm13, %xmm13, %xmm13
	vcvtps2pd	%xmm13, %xmm13
	jmp	.L493
.LVL731:
	.p2align 4,,10
	.p2align 3
.L490:
.LBE2365:
.LBE2572:
.LBB2573:
.LBB2526:
	.loc 4 41 0
	testb	%r9b, %r9b
	vmovapd	%xmm5, %xmm14
	je	.L491
	.loc 4 43 0
	vsubss	%xmm1, %xmm3, %xmm14
.LVL732:
	vmulss	%xmm2, %xmm14, %xmm15
	vmulss	%xmm15, %xmm14, %xmm14
.LVL733:
	vunpcklps	%xmm14, %xmm14, %xmm14
	vcvtps2pd	%xmm14, %xmm14
	jmp	.L491
.LVL734:
	.p2align 4,,10
	.p2align 3
.L487:
.LBE2526:
.LBE2573:
.LBB2574:
.LBB2366:
	.loc 4 39 0
	vmulss	%xmm7, %xmm7, %xmm0
	vmovss	.LC16(%rip), %xmm15
	vsubss	%xmm0, %xmm15, %xmm0
	.loc 4 43 0
	vunpcklps	%xmm0, %xmm0, %xmm0
	vcvtps2pd	%xmm0, %xmm0
	jmp	.L488
.LVL735:
	.p2align 4,,10
	.p2align 3
.L485:
.LBE2366:
.LBE2574:
.LBB2575:
.LBB2527:
	.loc 4 41 0
	testb	%r9b, %r9b
	vmovapd	%xmm5, %xmm14
	je	.L486
	.loc 4 43 0
	vsubss	%xmm1, %xmm3, %xmm14
.LVL736:
	vmulss	%xmm2, %xmm14, %xmm15
	vmulss	%xmm15, %xmm14, %xmm14
.LVL737:
	vunpcklps	%xmm14, %xmm14, %xmm14
	vcvtps2pd	%xmm14, %xmm14
	jmp	.L486
.LVL738:
	.p2align 4,,10
	.p2align 3
.L482:
.LBE2527:
.LBE2575:
.LBB2576:
.LBB2367:
	.loc 4 39 0
	vmulss	%xmm8, %xmm8, %xmm13
	vmovss	.LC16(%rip), %xmm15
	vsubss	%xmm13, %xmm15, %xmm13
	.loc 4 43 0
	vunpcklps	%xmm13, %xmm13, %xmm13
	vcvtps2pd	%xmm13, %xmm13
	jmp	.L483
.LVL739:
	.p2align 4,,10
	.p2align 3
.L480:
.LBE2367:
.LBE2576:
.LBB2577:
.LBB2528:
	.loc 4 41 0
	testb	%r9b, %r9b
	vmovapd	%xmm5, %xmm14
	je	.L481
	.loc 4 43 0
	vsubss	%xmm1, %xmm3, %xmm14
.LVL740:
	vmulss	%xmm2, %xmm14, %xmm15
	vmulss	%xmm15, %xmm14, %xmm14
.LVL741:
	vunpcklps	%xmm14, %xmm14, %xmm14
	vcvtps2pd	%xmm14, %xmm14
	jmp	.L481
.LVL742:
	.p2align 4,,10
	.p2align 3
.L477:
.LBE2528:
.LBE2577:
.LBB2578:
.LBB2368:
	.loc 4 39 0
	vmulss	%xmm8, %xmm8, %xmm13
	vsubss	%xmm13, %xmm9, %xmm13
	.loc 4 43 0
	vunpcklps	%xmm13, %xmm13, %xmm13
	vcvtps2pd	%xmm13, %xmm13
	jmp	.L478
.LVL743:
	.p2align 4,,10
	.p2align 3
.L457:
.LBE2368:
.LBE2578:
.LBE2595:
.LBE2617:
.LBE2639:
.LBE2658:
.LBB2659:
.LBB2660:
	.loc 3 270 0
	vxorpd	%xmm5, %xmm5, %xmm5
.LBE2660:
.LBE2659:
.LBB2718:
.LBB2640:
.LBB2618:
.LBB2596:
	.loc 3 336 0
	movl	80(%rdi), %ebx
	movl	76(%rdi), %r9d
	movl	72(%rdi), %r8d
.LBE2596:
.LBE2618:
.LBE2640:
.LBE2718:
.LBB2719:
.LBB2711:
.LBB2661:
.LBB2662:
	.loc 4 56 0
	vmovss	.LC11(%rip), %xmm10
.LBB2663:
.LBB2664:
	.loc 4 10 0
	vxorps	%xmm11, %xmm11, %xmm11
.LBE2664:
.LBE2663:
	.loc 4 56 0
	vmovss	.LC19(%rip), %xmm3
.LBE2662:
.LBE2661:
	.loc 3 270 0
	vsubsd	%xmm0, %xmm5, %xmm2
.LBE2711:
.LBE2719:
.LBB2720:
.LBB2641:
.LBB2619:
.LBB2597:
	.loc 3 336 0
	leal	-1(%rbx), %r11d
	leal	-1(%r9), %r10d
	leal	-1(%r8), %eax
	andl	%r11d, %ecx
.LVL744:
	vmovsd	96(%rdi), %xmm6
	addl	%ebx, %ecx
	andl	%r10d, %edx
.LVL745:
	movq	16(%rdi), %rdi
.LVL746:
.LBE2597:
.LBE2619:
.LBE2641:
.LBE2720:
.LBB2721:
.LBB2712:
	.loc 3 280 0
	vmovddup	%xmm2, %xmm2
.LBE2712:
.LBE2721:
.LBB2722:
.LBB2642:
.LBB2620:
.LBB2598:
	.loc 3 336 0
	andl	%r11d, %ecx
	imull	%r9d, %ecx
	addl	%r9d, %edx
	andl	%r10d, %edx
.LBE2598:
.LBE2620:
.LBE2642:
.LBE2722:
.LBB2723:
.LBB2713:
	.loc 3 280 0
	vcvtpd2psx	%xmm2, %xmm2
.LBE2713:
.LBE2723:
.LBB2724:
.LBB2643:
.LBB2621:
.LBB2599:
	.loc 3 336 0
	addl	%ecx, %edx
	movl	%r8d, %ecx
	imull	%edx, %ecx
.LBE2599:
.LBE2621:
.LBE2643:
.LBE2724:
.LBB2725:
.LBB2714:
.LBB2692:
.LBB2681:
.LBB2673:
.LBB2665:
	.loc 4 10 0
	xorl	%edx, %edx
.LBE2665:
.LBE2673:
.LBE2681:
.LBE2692:
.LBE2714:
.LBE2725:
.LBE2731:
.LBE2737:
	.loc 3 434 0
	popq	%rbx
	.cfi_def_cfa_offset 48
	popq	%rbp
	.cfi_def_cfa_offset 40
.LBB2738:
.LBB2732:
.LBB2726:
.LBB2644:
.LBB2622:
.LBB2600:
	.loc 3 336 0
	movslq	%ecx, %rcx
.LVL747:
.LBE2600:
.LBE2622:
.LBE2644:
.LBE2726:
.LBE2732:
.LBE2738:
	.loc 3 434 0
	popq	%r12
	.cfi_def_cfa_offset 32
	popq	%r13
	.cfi_def_cfa_offset 24
.LBB2739:
.LBB2733:
.LBB2727:
.LBB2715:
.LBB2693:
.LBB2682:
.LBB2674:
.LBB2666:
	.loc 4 10 0
	vucomiss	%xmm11, %xmm2
.LBE2666:
.LBE2674:
	.loc 4 56 0
	vmovaps	%xmm2, %xmm7
.LBE2682:
.LBE2693:
.LBE2715:
.LBE2727:
.LBE2733:
.LBE2739:
	.loc 3 434 0
	popq	%r14
	.cfi_def_cfa_offset 16
.LBB2740:
.LBB2734:
.LBB2728:
.LBB2716:
.LBB2694:
.LBB2683:
	.loc 4 56 0
	vandps	%xmm10, %xmm7, %xmm7
.LBB2675:
.LBB2667:
	.loc 4 10 0
	seta	%dl
	xorl	%r9d, %r9d
	vucomiss	%xmm2, %xmm11
.LBE2667:
.LBE2675:
	.loc 4 56 0
	vmovss	.LC13(%rip), %xmm2
.LVL748:
	vcmpngess	%xmm7, %xmm2, %xmm7
.LBE2683:
.LBE2694:
.LBE2716:
.LBE2728:
.LBE2734:
.LBE2740:
	.loc 3 434 0
	popq	%r15
	.cfi_def_cfa_offset 8
.LBB2741:
.LBB2735:
.LBB2729:
.LBB2717:
.LBB2695:
.LBB2684:
.LBB2676:
.LBB2668:
	.loc 4 10 0
	seta	%r9b
.LBE2668:
.LBE2676:
	.loc 4 56 0
	vandps	%xmm7, %xmm11, %xmm4
.LBB2677:
.LBB2669:
	.loc 4 10 0
	subl	%r9d, %edx
.LBE2669:
.LBE2677:
	.loc 4 56 0
	vandnps	%xmm2, %xmm7, %xmm7
	vcvtsi2ss	%edx, %xmm1, %xmm1
.LVL749:
.LBE2684:
.LBE2695:
.LBB2696:
.LBB2697:
	.loc 3 107 0
	movl	%esi, %edx
	andl	%eax, %edx
.LBE2697:
.LBE2696:
.LBB2701:
.LBB2685:
	.loc 4 56 0
	vorps	%xmm4, %xmm7, %xmm4
.LBE2685:
.LBE2701:
.LBB2702:
.LBB2698:
	.loc 3 107 0
	addl	%r8d, %edx
	andl	%eax, %edx
	.loc 3 113 0
	movslq	%edx, %rdx
	addq	%rcx, %rdx
.LBE2698:
.LBE2702:
.LBB2703:
.LBB2686:
	.loc 4 56 0
	vxorps	%xmm3, %xmm1, %xmm1
	vmulss	%xmm4, %xmm1, %xmm1
.LBE2686:
.LBE2703:
	.loc 3 280 0
	vunpcklps	%xmm1, %xmm1, %xmm1
	vcvtps2pd	%xmm1, %xmm1
	vmulsd	(%rdi,%rdx,8), %xmm1, %xmm1
.LBB2704:
.LBB2687:
.LBB2678:
.LBB2670:
	.loc 4 10 0
	xorl	%edx, %edx
.LBE2670:
.LBE2678:
.LBE2687:
.LBE2704:
	.loc 3 280 0
	vdivsd	%xmm6, %xmm1, %xmm1
	vaddsd	%xmm5, %xmm1, %xmm5
.LVL750:
	.loc 3 270 0
	vmovsd	.LC12(%rip), %xmm1
	vsubsd	%xmm0, %xmm1, %xmm0
.LVL751:
	.loc 3 280 0
	vmovddup	%xmm0, %xmm4
	vcvtpd2psx	%xmm4, %xmm4
.LVL752:
.LBB2705:
.LBB2688:
.LBB2679:
.LBB2671:
	.loc 4 10 0
	vucomiss	%xmm11, %xmm4
	seta	%dl
	xorl	%r9d, %r9d
	vucomiss	%xmm4, %xmm11
	seta	%r9b
.LBE2671:
.LBE2679:
.LBE2688:
.LBE2705:
	.loc 3 268 0
	addl	$1, %esi
.LVL753:
.LBB2706:
.LBB2689:
.LBB2680:
.LBB2672:
	.loc 4 10 0
	subl	%r9d, %edx
.LBE2672:
.LBE2680:
.LBE2689:
.LBE2706:
.LBB2707:
.LBB2699:
	.loc 3 107 0
	andl	%eax, %esi
.LVL754:
.LBE2699:
.LBE2707:
.LBB2708:
.LBB2690:
	.loc 4 56 0
	vcvtsi2ss	%edx, %xmm1, %xmm1
.LBE2690:
.LBE2708:
.LBB2709:
.LBB2700:
	.loc 3 107 0
	addl	%esi, %r8d
	andl	%eax, %r8d
	.loc 3 113 0
	movslq	%r8d, %r8
	addq	%r8, %rcx
.LBE2700:
.LBE2709:
.LBB2710:
.LBB2691:
	.loc 4 56 0
	vxorps	%xmm3, %xmm1, %xmm1
	vmovaps	%xmm4, %xmm3
	vandps	%xmm10, %xmm3, %xmm3
	vcmpngess	%xmm3, %xmm2, %xmm3
	vandps	%xmm3, %xmm11, %xmm11
	vandnps	%xmm2, %xmm3, %xmm2
	vorps	%xmm11, %xmm2, %xmm11
	vmulss	%xmm11, %xmm1, %xmm0
.LBE2691:
.LBE2710:
	.loc 3 280 0
	vunpcklps	%xmm0, %xmm0, %xmm0
	vcvtps2pd	%xmm0, %xmm0
	vmulsd	(%rdi,%rcx,8), %xmm0, %xmm0
	vdivsd	%xmm6, %xmm0, %xmm0
	vaddsd	%xmm5, %xmm0, %xmm0
.LVL755:
.LBE2717:
.LBE2729:
.LBE2735:
.LBE2741:
	.loc 3 434 0
	ret
	.cfi_endproc
.LFE2315:
	.size	_ZN12FieldDataCPU7intrpETILi0EL15FieldData_deriv1EEEddddiii, .-_ZN12FieldDataCPU7intrpETILi0EL15FieldData_deriv1EEEddddiii
	.section	.text._ZN12FieldDataCPU7intrpETILi1EL15FieldData_deriv1EEEddddiii,"axG",@progbits,_ZN12FieldDataCPU7intrpETILi1EL15FieldData_deriv1EEEddddiii,comdat
	.align 2
	.p2align 4,,15
	.weak	_ZN12FieldDataCPU7intrpETILi1EL15FieldData_deriv1EEEddddiii
	.type	_ZN12FieldDataCPU7intrpETILi1EL15FieldData_deriv1EEEddddiii, @function
_ZN12FieldDataCPU7intrpETILi1EL15FieldData_deriv1EEEddddiii:
.LFB2316:
	.loc 3 253 0
	.cfi_startproc
.LVL756:
	pushq	%r15
	.cfi_def_cfa_offset 16
	.cfi_offset 15, -16
.LBB2763:
.LBB2764:
	.loc 3 296 0
	vxorpd	%xmm9, %xmm9, %xmm9
.LBE2764:
.LBE2763:
	.loc 3 253 0
	pushq	%r14
	.cfi_def_cfa_offset 24
	.cfi_offset 14, -24
	pushq	%r13
	.cfi_def_cfa_offset 32
	.cfi_offset 13, -32
	pushq	%r12
	.cfi_def_cfa_offset 40
	.cfi_offset 12, -40
	pushq	%rbp
	.cfi_def_cfa_offset 48
	.cfi_offset 6, -48
	pushq	%rbx
	.cfi_def_cfa_offset 56
	.cfi_offset 3, -56
.LBB3007:
.LBB3004:
	.loc 3 257 0
	cmpl	$1, 92(%rdi)
.LBE3004:
.LBE3007:
	.loc 3 253 0
	vmovsd	%xmm2, -16(%rsp)
	movl	%ecx, -4(%rsp)
.LBB3008:
.LBB3005:
	.loc 3 257 0
	je	.L527
	movl	72(%rdi), %r10d
	vmovsd	.LC17(%rip), %xmm2
.LVL757:
	leal	-1(%rsi), %r11d
	movl	80(%rdi), %ecx
.LVL758:
	vmovss	.LC11(%rip), %xmm10
	vsubsd	%xmm0, %xmm2, %xmm2
	vmovss	.LC15(%rip), %xmm6
	leal	-1(%r10), %r9d
	vmovsd	.LC2(%rip), %xmm13
	movl	%ecx, -20(%rsp)
	subl	$1, %ecx
	movl	76(%rdi), %r8d
	andl	%r9d, %r11d
	movl	%ecx, -36(%rsp)
	vsubsd	%xmm0, %xmm13, %xmm3
	addl	%r10d, %r11d
	vmovddup	%xmm2, %xmm2
	andl	%r9d, %r11d
	vmovsd	.LC18(%rip), %xmm4
	movl	%r11d, %ecx
.LBB2765:
.LBB2766:
.LBB2767:
.LBB2768:
	.loc 3 367 0
	vmovsd	.LC12(%rip), %xmm11
.LBE2768:
.LBE2767:
.LBE2766:
.LBE2765:
	.loc 3 257 0
	sall	$16, %ecx
	vmovddup	%xmm3, %xmm3
	orl	%r11d, %ecx
	vsubsd	%xmm0, %xmm4, %xmm0
.LVL759:
	leal	-1(%r8), %eax
	vcvtpd2psx	%xmm2, %xmm2
	andl	$50331903, %ecx
	movl	%ecx, %r11d
.LBB2991:
.LBB2975:
.LBB2959:
.LBB2943:
.LBB2769:
.LBB2770:
.LBB2771:
	.loc 4 73 0
	vmovss	.LC14(%rip), %xmm4
.LBE2771:
.LBE2770:
.LBE2769:
.LBE2943:
.LBE2959:
.LBE2975:
.LBE2991:
	.loc 3 257 0
	sall	$8, %r11d
	vmovddup	%xmm0, %xmm0
	orl	%ecx, %r11d
.LBB2992:
.LBB2976:
.LBB2960:
.LBB2944:
	.loc 3 367 0
	vsubsd	%xmm1, %xmm9, %xmm12
.LBE2944:
.LBE2960:
.LBE2976:
.LBE2992:
	.loc 3 257 0
	andl	$50393103, %r11d
.LBB2993:
.LBB2977:
.LBB2961:
.LBB2945:
	.loc 3 367 0
	vsubsd	%xmm1, %xmm11, %xmm11
.LBE2945:
.LBE2961:
.LBE2977:
.LBE2993:
	.loc 3 257 0
	movl	%r11d, %ecx
	sall	$4, %ecx
	orl	%r11d, %ecx
	vmovaps	%xmm2, %xmm5
	andl	$51130563, %ecx
	vmovss	%xmm2, -32(%rsp)
	vandps	%xmm10, %xmm5, %xmm5
	leal	0(,%rcx,4), %r11d
	vmovsd	96(%rdi), %xmm2
	orl	%ecx, %r11d
	movq	24(%rdi), %rcx
	andl	$153391689, %r11d
.LBB2994:
.LBB2978:
.LBB2962:
.LBB2946:
	.loc 3 376 0
	vmovddup	%xmm12, %xmm12
.LBE2946:
.LBE2962:
.LBE2978:
.LBE2994:
	.loc 3 257 0
	vucomiss	%xmm5, %xmm6
	movl	%r11d, -48(%rsp)
	movl	%esi, %r11d
	vcvtpd2psx	%xmm3, %xmm3
	setae	%r14b
	andl	%r9d, %r11d
	addl	%r10d, %r11d
.LBB2995:
.LBB2979:
.LBB2963:
.LBB2947:
	.loc 3 376 0
	vmovddup	%xmm11, %xmm11
.LBE2947:
.LBE2963:
.LBE2979:
.LBE2995:
	.loc 3 257 0
	andl	%r9d, %r11d
	movl	%r11d, %edi
.LVL760:
	sall	$16, %edi
	orl	%r11d, %edi
	andl	$50331903, %edi
	vmovss	%xmm3, -28(%rsp)
	movl	%edi, %r11d
	vandps	%xmm10, %xmm3, %xmm3
	sall	$8, %r11d
	orl	%edi, %r11d
	andl	$50393103, %r11d
	movl	%r11d, %edi
	sall	$4, %edi
	orl	%r11d, %edi
	andl	$51130563, %edi
	leal	0(,%rdi,4), %r11d
	vcvtpd2psx	%xmm0, %xmm0
	orl	%edi, %r11d
	andl	$153391689, %r11d
	vucomiss	%xmm3, %xmm6
.LBB2996:
.LBB2980:
.LBB2964:
.LBB2948:
	.loc 3 376 0
	vcvtpd2psx	%xmm12, %xmm12
.LBE2948:
.LBE2964:
.LBE2980:
.LBE2996:
	.loc 3 257 0
	movl	%r11d, -44(%rsp)
.LBB2997:
.LBB2981:
.LBB2965:
.LBB2949:
	.loc 3 376 0
	vcvtpd2psx	%xmm11, %xmm11
.LBE2949:
.LBE2965:
.LBE2981:
.LBE2997:
	.loc 3 257 0
	setae	%r13b
	addl	$1, %esi
.LVL761:
	andl	%r9d, %esi
.LVL762:
	vmovss	%xmm0, -24(%rsp)
	addl	%esi, %r10d
	vandps	%xmm10, %xmm0, %xmm0
	andl	%r9d, %r10d
	movl	%r10d, %r9d
	sall	$16, %r9d
.LBB2998:
.LBB2982:
.LBB2966:
.LBB2950:
.LBB2816:
.LBB2817:
	.loc 4 21 0
	vandps	%xmm10, %xmm12, %xmm12
.LBE2817:
.LBE2816:
.LBE2950:
.LBE2966:
.LBE2982:
.LBE2998:
	.loc 3 257 0
	orl	%r10d, %r9d
	andl	$50331903, %r9d
.LBB2999:
.LBB2983:
.LBB2967:
.LBB2951:
.LBB2833:
.LBB2818:
	.loc 4 21 0
	vandps	%xmm10, %xmm11, %xmm11
.LBE2818:
.LBE2833:
.LBE2951:
.LBE2967:
.LBE2983:
.LBE2999:
	.loc 3 257 0
	movl	%r9d, %edi
	sall	$8, %edi
	orl	%r9d, %edi
.LBB3000:
.LBB2984:
.LBB2968:
.LBB2952:
.LBB2834:
.LBB2835:
	.loc 3 159 0
	movl	%edx, %r9d
.LBE2835:
.LBE2834:
.LBE2952:
.LBE2968:
.LBE2984:
.LBE3000:
	.loc 3 257 0
	andl	$50393103, %edi
	movl	%edi, %esi
	sall	$4, %esi
	orl	%edi, %esi
	andl	$51130563, %esi
	leal	0(,%rsi,4), %edi
	orl	%esi, %edi
.LBB3001:
.LBB2985:
.LBB2969:
.LBB2953:
.LBB2867:
.LBB2786:
.LBB2772:
	.loc 4 73 0
	movl	$-1, %esi
.LBE2772:
.LBE2786:
.LBE2867:
.LBE2953:
.LBE2969:
.LBE2985:
.LBE3001:
	.loc 3 257 0
	andl	$153391689, %edi
	vucomiss	%xmm0, %xmm6
	movl	%edi, -40(%rsp)
	setae	%r12b
.LBB3002:
.LBB2986:
.LBB2970:
.LBB2954:
.LBB2868:
.LBB2787:
.LBB2773:
	.loc 4 73 0
	vucomiss	%xmm5, %xmm4
	vmovss	.LC13(%rip), %xmm5
.LBE2773:
.LBE2787:
.LBE2868:
.LBB2869:
.LBB2819:
	.loc 4 23 0
	vsubss	%xmm12, %xmm5, %xmm8
	vsubss	%xmm11, %xmm5, %xmm7
.LBE2819:
.LBE2869:
.LBB2870:
.LBB2788:
.LBB2774:
	.loc 4 73 0
	setae	-7(%rsp)
	vucomiss	%xmm3, %xmm4
	vmovapd	%xmm9, %xmm3
	setae	-6(%rsp)
	vucomiss	%xmm0, %xmm4
.LBE2774:
.LBE2788:
.LBE2870:
.LBB2871:
.LBB2872:
	.loc 4 39 0
	vmovss	.LC16(%rip), %xmm0
.LBE2872:
.LBE2871:
.LBB2887:
.LBB2789:
.LBB2775:
	.loc 4 73 0
	setae	-5(%rsp)
.LBE2775:
.LBE2789:
.LBE2887:
	.loc 3 364 0
	addl	$1, %edx
.LVL763:
.LBB2888:
.LBB2852:
	.loc 3 159 0
	andl	%eax, %r9d
.LVL764:
	andl	%eax, %edx
.LVL765:
	addl	%r8d, %r9d
.LBE2852:
.LBE2888:
.LBB2889:
.LBB2820:
	.loc 4 23 0
	xorl	%ebp, %ebp
.LBE2820:
.LBE2889:
.LBB2890:
.LBB2853:
	.loc 3 159 0
	addl	%r8d, %edx
	andl	%eax, %r9d
	andl	%eax, %edx
.LBB2836:
.LBB2837:
	.loc 3 19 0
	movl	%r9d, %edi
	movl	%edx, %eax
	sall	$16, %edi
	sall	$16, %eax
	orl	%r9d, %edi
	orl	%edx, %eax
	andl	$50331903, %edi
	andl	$50331903, %eax
	.loc 3 20 0
	movl	%edi, %r9d
	movl	%eax, %edx
	sall	$8, %r9d
	sall	$8, %edx
	orl	%edi, %r9d
	orl	%eax, %edx
	andl	$50393103, %r9d
	andl	$50393103, %edx
	.loc 3 21 0
	movl	%r9d, %edi
	movl	%edx, %eax
	sall	$4, %edi
	sall	$4, %eax
	orl	%r9d, %edi
	orl	%edx, %eax
	andl	$51130563, %edi
	andl	$51130563, %eax
	.loc 3 22 0
	leal	0(,%rdi,4), %r9d
	leal	0(,%rax,4), %r8d
	orl	%edi, %r9d
	orl	%eax, %r8d
	andl	$153391689, %r9d
	andl	$153391689, %r8d
	.loc 3 29 0
	addl	%r9d, %r9d
	addl	%r8d, %r8d
.LVL766:
.L528:
.LBE2837:
.LBE2836:
.LBE2853:
.LBE2890:
.LBE2954:
.LBE2970:
.LBE2986:
	.loc 3 356 0 discriminator 1
	vcvtsi2sd	%esi, %xmm1, %xmm1
	.loc 3 253 0 discriminator 1
	movl	-4(%rsp), %edx
	.loc 3 356 0 discriminator 1
	movl	-48(%rsp), %ebx
	movl	-44(%rsp), %r10d
	.loc 3 253 0 discriminator 1
	addl	%esi, %edx
	.loc 3 356 0 discriminator 1
	andl	-36(%rsp), %edx
	addl	-20(%rsp), %edx
	andl	-36(%rsp), %edx
	movl	%edx, %eax
	sall	$16, %eax
	vaddsd	.LC2(%rip), %xmm1, %xmm1
	orl	%edx, %eax
	andl	$50331903, %eax
	movl	%eax, %edx
	sall	$8, %edx
	orl	%eax, %edx
	andl	$50393103, %edx
	vsubsd	-16(%rsp), %xmm1, %xmm1
	movl	%edx, %eax
	sall	$4, %eax
	orl	%edx, %eax
	andl	$51130563, %eax
	leal	0(,%rax,4), %r11d
	vmovddup	%xmm1, %xmm1
	orl	%eax, %r11d
	andl	$153391689, %r11d
	sall	$2, %r11d
	vcvtpd2psx	%xmm1, %xmm1
	orl	%r11d, %ebx
.LBB2987:
.LBB2971:
.LBB2955:
.LBB2891:
.LBB2854:
.LBB2845:
.LBB2838:
	.loc 3 29 0 discriminator 1
	movl	%ebx, %edx
.LBE2838:
.LBE2845:
.LBE2854:
.LBE2891:
.LBE2955:
.LBE2971:
.LBE2987:
	.loc 3 356 0 discriminator 1
	vandps	%xmm10, %xmm1, %xmm1
	vucomiss	%xmm1, %xmm6
	setae	%al
	orl	%r11d, %r10d
	orl	-40(%rsp), %r11d
.LBB2988:
.LBB2972:
.LBB2956:
.LBB2892:
.LBB2873:
	.loc 4 41 0 discriminator 1
	vucomiss	%xmm1, %xmm4
	setae	%dil
.LVL767:
.LBE2873:
.LBE2892:
.LBB2893:
.LBB2855:
.LBB2846:
.LBB2839:
	.loc 3 29 0 discriminator 1
	orl	%r9d, %edx
.LBE2839:
.LBE2846:
.LBE2855:
.LBE2893:
.LBB2894:
.LBB2790:
	.loc 4 69 0 discriminator 1
	testb	%r14b, %r14b
.LBE2790:
.LBE2894:
.LBB2895:
.LBB2856:
	.loc 3 170 0 discriminator 1
	movslq	%edx, %rdx
.LBE2856:
.LBE2895:
	.loc 3 364 0 discriminator 1
	vmovsd	(%rcx,%rdx,8), %xmm14
.LVL768:
.LBB2896:
.LBB2791:
	.loc 4 69 0 discriminator 1
	jne	.L549
.LVL769:
.LBE2791:
.LBB2792:
.LBB2776:
	.loc 4 73 0
	cmpb	$0, -7(%rsp)
	vmovapd	%xmm3, %xmm13
	je	.L551
.LVL770:
	.loc 4 75 0
	vsubss	-32(%rsp), %xmm4, %xmm13
	.loc 4 73 0
	vunpcklps	%xmm13, %xmm13, %xmm13
	vcvtps2pd	%xmm13, %xmm13
.LVL771:
.L551:
.LBE2776:
.LBE2792:
.LBE2896:
.LBB2897:
.LBB2821:
	.loc 4 23 0
	vucomiss	%xmm12, %xmm5
	movl	%ebp, -52(%rsp)
.LBE2821:
.LBE2897:
	.loc 3 376 0
	vmulsd	%xmm13, %xmm14, %xmm13
.LVL772:
.LBB2898:
.LBB2822:
	.loc 4 23 0
	vmovss	-52(%rsp), %xmm14
	setae	%dl
.LVL773:
	testb	%dl, %dl
	je	.L552
	vmovaps	%xmm5, %xmm14
.L552:
.LVL774:
	vmulss	%xmm14, %xmm8, %xmm14
.LBE2822:
.LBE2898:
.LBB2899:
.LBB2874:
	.loc 4 37 0
	testb	%al, %al
.LBE2874:
.LBE2899:
	.loc 3 376 0
	vunpcklps	%xmm14, %xmm14, %xmm14
	vcvtps2pd	%xmm14, %xmm14
	vmulsd	%xmm14, %xmm13, %xmm13
.LVL775:
.LBB2900:
.LBB2875:
	.loc 4 37 0
	je	.L553
.LVL776:
	.loc 4 39 0
	vmulss	%xmm1, %xmm1, %xmm14
	vsubss	%xmm14, %xmm0, %xmm14
	.loc 4 37 0
	vunpcklps	%xmm14, %xmm14, %xmm14
	vcvtps2pd	%xmm14, %xmm14
.LVL777:
.L554:
.LBE2875:
.LBE2900:
	.loc 3 376 0
	vmulsd	%xmm14, %xmm13, %xmm13
.LBB2901:
.LBB2857:
.LBB2847:
.LBB2840:
	.loc 3 29 0
	movl	%r10d, %r15d
	orl	%r9d, %r15d
.LBE2840:
.LBE2847:
.LBE2857:
.LBE2901:
.LBB2902:
.LBB2793:
	.loc 4 69 0
	testb	%r13b, %r13b
.LBE2793:
.LBE2902:
.LBB2903:
.LBB2858:
	.loc 3 170 0
	movslq	%r15d, %r15
.LBE2858:
.LBE2903:
	.loc 3 364 0
	vmovsd	(%rcx,%r15,8), %xmm14
	.loc 3 376 0
	vdivsd	%xmm2, %xmm13, %xmm13
	vaddsd	%xmm9, %xmm13, %xmm9
.LVL778:
.LBB2904:
.LBB2794:
	.loc 4 69 0
	jne	.L555
.LVL779:
.LBE2794:
.LBB2795:
.LBB2777:
	.loc 4 73 0
	cmpb	$0, -6(%rsp)
	vmovapd	%xmm3, %xmm13
	je	.L557
.LVL780:
	.loc 4 75 0
	vsubss	-28(%rsp), %xmm4, %xmm13
	.loc 4 73 0
	vunpcklps	%xmm13, %xmm13, %xmm13
	vcvtps2pd	%xmm13, %xmm13
.LVL781:
.L557:
.LBE2777:
.LBE2795:
.LBE2904:
.LBB2905:
.LBB2823:
	.loc 4 23 0
	testb	%dl, %dl
.LBE2823:
.LBE2905:
	.loc 3 376 0
	vmulsd	%xmm13, %xmm14, %xmm13
.LVL782:
.LBB2906:
.LBB2824:
	.loc 4 23 0
	vxorps	%xmm14, %xmm14, %xmm14
	je	.L558
	vmovaps	%xmm5, %xmm14
.L558:
.LVL783:
	vmulss	%xmm14, %xmm8, %xmm14
.LBE2824:
.LBE2906:
.LBB2907:
.LBB2876:
	.loc 4 37 0
	testb	%al, %al
.LBE2876:
.LBE2907:
	.loc 3 376 0
	vunpcklps	%xmm14, %xmm14, %xmm14
	vcvtps2pd	%xmm14, %xmm14
	vmulsd	%xmm14, %xmm13, %xmm13
.LVL784:
.LBB2908:
.LBB2877:
	.loc 4 37 0
	je	.L559
.LVL785:
	.loc 4 39 0
	vmulss	%xmm1, %xmm1, %xmm14
	vmovss	.LC16(%rip), %xmm15
	vsubss	%xmm14, %xmm15, %xmm14
	.loc 4 37 0
	vunpcklps	%xmm14, %xmm14, %xmm14
	vcvtps2pd	%xmm14, %xmm14
.LVL786:
.L560:
.LBE2877:
.LBE2908:
	.loc 3 376 0
	vmulsd	%xmm14, %xmm13, %xmm13
.LBB2909:
.LBB2859:
.LBB2848:
.LBB2841:
	.loc 3 29 0
	movl	%r11d, %r15d
.LVL787:
	orl	%r9d, %r15d
.LBE2841:
.LBE2848:
.LBE2859:
.LBE2909:
.LBB2910:
.LBB2796:
	.loc 4 69 0
	testb	%r12b, %r12b
.LBE2796:
.LBE2910:
.LBB2911:
.LBB2860:
	.loc 3 170 0
	movslq	%r15d, %r15
.LBE2860:
.LBE2911:
	.loc 3 364 0
	vmovsd	(%rcx,%r15,8), %xmm14
	.loc 3 376 0
	vdivsd	%xmm2, %xmm13, %xmm13
	vaddsd	%xmm13, %xmm9, %xmm13
.LVL788:
.LBB2912:
.LBB2797:
	.loc 4 69 0
	jne	.L561
.LVL789:
.LBE2797:
.LBB2798:
.LBB2778:
	.loc 4 73 0
	cmpb	$0, -5(%rsp)
	vmovapd	%xmm3, %xmm9
	je	.L563
.LVL790:
	.loc 4 75 0
	vsubss	-24(%rsp), %xmm4, %xmm9
	.loc 4 73 0
	vunpcklps	%xmm9, %xmm9, %xmm9
	vcvtps2pd	%xmm9, %xmm9
.LVL791:
.L563:
.LBE2778:
.LBE2798:
.LBE2912:
.LBB2913:
.LBB2825:
	.loc 4 23 0
	testb	%dl, %dl
.LBE2825:
.LBE2913:
	.loc 3 376 0
	vmulsd	%xmm9, %xmm14, %xmm9
.LVL792:
.LBB2914:
.LBB2826:
	.loc 4 23 0
	vxorps	%xmm14, %xmm14, %xmm14
	je	.L564
	vmovaps	%xmm5, %xmm14
.L564:
.LVL793:
	vmulss	%xmm14, %xmm8, %xmm14
.LBE2826:
.LBE2914:
.LBB2915:
.LBB2878:
	.loc 4 37 0
	testb	%al, %al
.LBE2878:
.LBE2915:
	.loc 3 376 0
	vunpcklps	%xmm14, %xmm14, %xmm14
	vcvtps2pd	%xmm14, %xmm14
	vmulsd	%xmm14, %xmm9, %xmm9
.LVL794:
.LBB2916:
.LBB2879:
	.loc 4 37 0
	je	.L565
.LVL795:
	.loc 4 39 0
	vmulss	%xmm1, %xmm1, %xmm14
	vmovss	.LC16(%rip), %xmm15
	vsubss	%xmm14, %xmm15, %xmm14
	.loc 4 37 0
	vunpcklps	%xmm14, %xmm14, %xmm14
	vcvtps2pd	%xmm14, %xmm14
.LVL796:
.L566:
.LBE2879:
.LBE2916:
	.loc 3 376 0
	vmulsd	%xmm14, %xmm9, %xmm9
.LBB2917:
.LBB2861:
.LBB2849:
.LBB2842:
	.loc 3 29 0
	orl	%r8d, %ebx
.LBE2842:
.LBE2849:
.LBE2861:
.LBE2917:
.LBB2918:
.LBB2799:
	.loc 4 69 0
	testb	%r14b, %r14b
.LBE2799:
.LBE2918:
.LBB2919:
.LBB2862:
	.loc 3 170 0
	movslq	%ebx, %rbx
.LBE2862:
.LBE2919:
	.loc 3 376 0
	vdivsd	%xmm2, %xmm9, %xmm9
	vaddsd	%xmm9, %xmm13, %xmm9
.LVL797:
	.loc 3 364 0
	vmovsd	(%rcx,%rbx,8), %xmm13
.LVL798:
.LBB2920:
.LBB2800:
	.loc 4 69 0
	jne	.L587
.LVL799:
.LBE2800:
.LBB2801:
.LBB2779:
	.loc 4 73 0
	cmpb	$0, -7(%rsp)
	vmovapd	%xmm3, %xmm14
	je	.L529
.LVL800:
	.loc 4 75 0
	vsubss	-32(%rsp), %xmm4, %xmm14
	.loc 4 73 0
	vunpcklps	%xmm14, %xmm14, %xmm14
	vcvtps2pd	%xmm14, %xmm14
.LVL801:
.L529:
.LBE2779:
.LBE2801:
.LBE2920:
.LBB2921:
.LBB2827:
	.loc 4 23 0
	vucomiss	%xmm11, %xmm5
.LBE2827:
.LBE2921:
	.loc 3 376 0
	vmulsd	%xmm14, %xmm13, %xmm13
.LVL802:
.LBB2922:
.LBB2828:
	.loc 4 23 0
	vxorps	%xmm14, %xmm14, %xmm14
	setae	%dl
	testb	%dl, %dl
	je	.L532
	vmovaps	%xmm5, %xmm14
.L532:
.LVL803:
	vmulss	%xmm14, %xmm7, %xmm14
.LBE2828:
.LBE2922:
.LBB2923:
.LBB2880:
	.loc 4 37 0
	testb	%al, %al
.LBE2880:
.LBE2923:
	.loc 3 376 0
	vunpcklps	%xmm14, %xmm14, %xmm14
	vcvtps2pd	%xmm14, %xmm14
	vmulsd	%xmm14, %xmm13, %xmm13
.LVL804:
.LBB2924:
.LBB2881:
	.loc 4 37 0
	jne	.L533
	.loc 4 41 0
	testb	%dil, %dil
	vmovapd	%xmm3, %xmm14
	je	.L534
	.loc 4 43 0
	vsubss	%xmm1, %xmm4, %xmm14
.LVL805:
	vmulss	%xmm6, %xmm14, %xmm15
	vmulss	%xmm15, %xmm14, %xmm14
.LVL806:
	vunpcklps	%xmm14, %xmm14, %xmm14
	vcvtps2pd	%xmm14, %xmm14
.L534:
.LBE2881:
.LBE2924:
	.loc 3 376 0
	vmulsd	%xmm14, %xmm13, %xmm13
.LBB2925:
.LBB2863:
.LBB2850:
.LBB2843:
	.loc 3 29 0
	orl	%r8d, %r10d
.LBE2843:
.LBE2850:
.LBE2863:
.LBE2925:
.LBB2926:
.LBB2802:
	.loc 4 69 0
	testb	%r13b, %r13b
.LBE2802:
.LBE2926:
.LBB2927:
.LBB2864:
	.loc 3 170 0
	movslq	%r10d, %r10
.LBE2864:
.LBE2927:
	.loc 3 376 0
	vdivsd	%xmm2, %xmm13, %xmm13
	vaddsd	%xmm9, %xmm13, %xmm9
.LVL807:
	.loc 3 364 0
	vmovsd	(%rcx,%r10,8), %xmm13
.LVL808:
.LBB2928:
.LBB2803:
	.loc 4 69 0
	jne	.L588
.LVL809:
.LBE2803:
.LBB2804:
.LBB2780:
	.loc 4 73 0
	cmpb	$0, -6(%rsp)
	vmovapd	%xmm3, %xmm15
	je	.L536
.LVL810:
	.loc 4 75 0
	vsubss	-28(%rsp), %xmm4, %xmm15
	.loc 4 73 0
	vunpcklps	%xmm15, %xmm15, %xmm15
	vcvtps2pd	%xmm15, %xmm15
.LVL811:
.L536:
.LBE2780:
.LBE2804:
.LBE2928:
.LBB2929:
.LBB2829:
	.loc 4 23 0
	testb	%dl, %dl
.LBE2829:
.LBE2929:
	.loc 3 376 0
	vmulsd	%xmm15, %xmm13, %xmm15
.LVL812:
.LBB2930:
.LBB2830:
	.loc 4 23 0
	vxorps	%xmm14, %xmm14, %xmm14
	je	.L539
	vmovaps	%xmm5, %xmm14
.L539:
.LVL813:
	vmulss	%xmm14, %xmm7, %xmm13
.LBE2830:
.LBE2930:
.LBB2931:
.LBB2882:
	.loc 4 37 0
	testb	%al, %al
.LBE2882:
.LBE2931:
	.loc 3 376 0
	vunpcklps	%xmm13, %xmm13, %xmm13
	vcvtps2pd	%xmm13, %xmm13
	vmulsd	%xmm13, %xmm15, %xmm13
.LVL814:
.LBB2932:
.LBB2883:
	.loc 4 37 0
	jne	.L540
	.loc 4 41 0
	testb	%dil, %dil
	vmovapd	%xmm3, %xmm14
	je	.L541
	.loc 4 43 0
	vsubss	%xmm1, %xmm4, %xmm14
.LVL815:
	vmulss	%xmm6, %xmm14, %xmm15
	vmulss	%xmm15, %xmm14, %xmm14
.LVL816:
	vunpcklps	%xmm14, %xmm14, %xmm14
	vcvtps2pd	%xmm14, %xmm14
.L541:
.LBE2883:
.LBE2932:
	.loc 3 376 0
	vmulsd	%xmm14, %xmm13, %xmm13
.LBB2933:
.LBB2865:
.LBB2851:
.LBB2844:
	.loc 3 29 0
	orl	%r8d, %r11d
.LBE2844:
.LBE2851:
.LBE2865:
.LBE2933:
.LBB2934:
.LBB2805:
	.loc 4 69 0
	testb	%r12b, %r12b
.LBE2805:
.LBE2934:
.LBB2935:
.LBB2866:
	.loc 3 170 0
	movslq	%r11d, %r11
.LBE2866:
.LBE2935:
	.loc 3 364 0
	vmovsd	(%rcx,%r11,8), %xmm14
	.loc 3 376 0
	vdivsd	%xmm2, %xmm13, %xmm13
	vaddsd	%xmm13, %xmm9, %xmm9
.LVL817:
.LBB2936:
.LBB2806:
	.loc 4 69 0
	jne	.L589
.LVL818:
.LBE2806:
.LBB2807:
.LBB2781:
	.loc 4 73 0
	cmpb	$0, -5(%rsp)
	vmovapd	%xmm3, %xmm13
	je	.L543
.LVL819:
	.loc 4 75 0
	vsubss	-24(%rsp), %xmm4, %xmm13
	.loc 4 73 0
	vunpcklps	%xmm13, %xmm13, %xmm13
	vcvtps2pd	%xmm13, %xmm13
.LVL820:
.L543:
.LBE2781:
.LBE2807:
.LBE2936:
.LBB2937:
.LBB2831:
	.loc 4 23 0
	testb	%dl, %dl
.LBE2831:
.LBE2937:
	.loc 3 376 0
	vmulsd	%xmm13, %xmm14, %xmm13
.LVL821:
.LBB2938:
.LBB2832:
	.loc 4 23 0
	vxorps	%xmm14, %xmm14, %xmm14
	je	.L546
	vmovaps	%xmm5, %xmm14
.L546:
.LVL822:
	vmulss	%xmm14, %xmm7, %xmm14
.LBE2832:
.LBE2938:
.LBB2939:
.LBB2884:
	.loc 4 37 0
	testb	%al, %al
.LBE2884:
.LBE2939:
	.loc 3 376 0
	vunpcklps	%xmm14, %xmm14, %xmm14
	vcvtps2pd	%xmm14, %xmm14
	vmulsd	%xmm14, %xmm13, %xmm14
.LVL823:
.LBB2940:
.LBB2885:
	.loc 4 37 0
	jne	.L547
	.loc 4 41 0
	testb	%dil, %dil
	vmovapd	%xmm3, %xmm15
	je	.L548
	.loc 4 43 0
	vsubss	%xmm1, %xmm4, %xmm1
.LVL824:
	vmulss	%xmm6, %xmm1, %xmm15
	vmulss	%xmm15, %xmm1, %xmm15
	vunpcklps	%xmm15, %xmm15, %xmm15
	vcvtps2pd	%xmm15, %xmm15
.LVL825:
.L548:
.LBE2885:
.LBE2940:
	.loc 3 376 0
	vmulsd	%xmm15, %xmm14, %xmm14
.LBE2956:
.LBE2972:
.LBE2988:
	.loc 3 356 0
	addl	$1, %esi
	cmpl	$2, %esi
.LBB2989:
.LBB2973:
.LBB2957:
	.loc 3 376 0
	vdivsd	%xmm2, %xmm14, %xmm14
	vaddsd	%xmm14, %xmm9, %xmm9
.LVL826:
.LBE2957:
.LBE2973:
.LBE2989:
	.loc 3 356 0
	jne	.L528
.LVL827:
.L527:
.LBE3002:
.LBE3005:
.LBE3008:
	.loc 3 434 0
	popq	%rbx
	.cfi_remember_state
	.cfi_def_cfa_offset 48
	popq	%rbp
	.cfi_def_cfa_offset 40
	popq	%r12
	.cfi_def_cfa_offset 32
	popq	%r13
	.cfi_def_cfa_offset 24
	popq	%r14
	.cfi_def_cfa_offset 16
	popq	%r15
	.cfi_def_cfa_offset 8
	vmovapd	%xmm9, %xmm0
	ret
.LVL828:
	.p2align 4,,10
	.p2align 3
.L547:
	.cfi_restore_state
.LBB3009:
.LBB3006:
.LBB3003:
.LBB2990:
.LBB2974:
.LBB2958:
.LBB2941:
.LBB2886:
	.loc 4 39 0
	vmulss	%xmm1, %xmm1, %xmm1
.LVL829:
	vmovss	.LC16(%rip), %xmm13
	vsubss	%xmm1, %xmm13, %xmm15
.LVL830:
	.loc 4 43 0
	vunpcklps	%xmm15, %xmm15, %xmm15
.LVL831:
	vcvtps2pd	%xmm15, %xmm15
	jmp	.L548
.LVL832:
	.p2align 4,,10
	.p2align 3
.L540:
	.loc 4 39 0
	vmulss	%xmm1, %xmm1, %xmm14
	vmovss	.LC16(%rip), %xmm15
	vsubss	%xmm14, %xmm15, %xmm14
	.loc 4 43 0
	vunpcklps	%xmm14, %xmm14, %xmm14
	vcvtps2pd	%xmm14, %xmm14
	jmp	.L541
.LVL833:
	.p2align 4,,10
	.p2align 3
.L533:
	.loc 4 39 0
	vmulss	%xmm1, %xmm1, %xmm14
	vmovss	.LC16(%rip), %xmm15
	vsubss	%xmm14, %xmm15, %xmm14
	.loc 4 43 0
	vunpcklps	%xmm14, %xmm14, %xmm14
	vcvtps2pd	%xmm14, %xmm14
	jmp	.L534
.LVL834:
	.p2align 4,,10
	.p2align 3
.L565:
	.loc 4 41 0
	testb	%dil, %dil
	vmovapd	%xmm3, %xmm14
	je	.L566
	.loc 4 43 0
	vsubss	%xmm1, %xmm4, %xmm14
.LVL835:
	vmulss	%xmm6, %xmm14, %xmm15
	vmulss	%xmm15, %xmm14, %xmm14
.LVL836:
	vunpcklps	%xmm14, %xmm14, %xmm14
	vcvtps2pd	%xmm14, %xmm14
	jmp	.L566
.LVL837:
	.p2align 4,,10
	.p2align 3
.L553:
	.loc 4 41 0
	testb	%dil, %dil
	vmovapd	%xmm3, %xmm14
	je	.L554
	.loc 4 43 0
	vsubss	%xmm1, %xmm4, %xmm14
.LVL838:
	vmulss	%xmm6, %xmm14, %xmm15
	vmulss	%xmm15, %xmm14, %xmm14
.LVL839:
	vunpcklps	%xmm14, %xmm14, %xmm14
	vcvtps2pd	%xmm14, %xmm14
	jmp	.L554
.LVL840:
	.p2align 4,,10
	.p2align 3
.L559:
	.loc 4 41 0
	testb	%dil, %dil
	vmovapd	%xmm3, %xmm14
	je	.L560
	.loc 4 43 0
	vsubss	%xmm1, %xmm4, %xmm14
.LVL841:
	vmulss	%xmm6, %xmm14, %xmm15
	vmulss	%xmm15, %xmm14, %xmm14
.LVL842:
	vunpcklps	%xmm14, %xmm14, %xmm14
	vcvtps2pd	%xmm14, %xmm14
	jmp	.L560
.LVL843:
	.p2align 4,,10
	.p2align 3
.L555:
.LBE2886:
.LBE2941:
.LBB2942:
.LBB2808:
	.loc 4 71 0
	vmovss	.LC20(%rip), %xmm15
	vmulss	-28(%rsp), %xmm15, %xmm13
.LBE2808:
.LBB2809:
.LBB2782:
	.loc 4 73 0
	vunpcklps	%xmm13, %xmm13, %xmm13
	vcvtps2pd	%xmm13, %xmm13
	jmp	.L557
.LVL844:
	.p2align 4,,10
	.p2align 3
.L561:
.LBE2782:
.LBE2809:
.LBB2810:
	.loc 4 71 0
	vmovss	.LC20(%rip), %xmm15
	vmulss	-24(%rsp), %xmm15, %xmm9
.LBE2810:
.LBB2811:
.LBB2783:
	.loc 4 73 0
	vunpcklps	%xmm9, %xmm9, %xmm9
	vcvtps2pd	%xmm9, %xmm9
	jmp	.L563
.LVL845:
	.p2align 4,,10
	.p2align 3
.L549:
.LBE2783:
.LBE2811:
.LBB2812:
	.loc 4 71 0
	vmovss	.LC20(%rip), %xmm15
	vmulss	-32(%rsp), %xmm15, %xmm13
.LBE2812:
.LBB2813:
.LBB2784:
	.loc 4 73 0
	vunpcklps	%xmm13, %xmm13, %xmm13
	vcvtps2pd	%xmm13, %xmm13
	jmp	.L551
.LVL846:
	.p2align 4,,10
	.p2align 3
.L589:
.LBE2784:
.LBE2813:
.LBB2814:
	.loc 4 71 0
	vmovss	.LC20(%rip), %xmm15
	vmulss	-24(%rsp), %xmm15, %xmm13
	.loc 4 69 0
	vunpcklps	%xmm13, %xmm13, %xmm13
	vcvtps2pd	%xmm13, %xmm13
	jmp	.L543
.LVL847:
	.p2align 4,,10
	.p2align 3
.L588:
	.loc 4 71 0
	vmovss	.LC20(%rip), %xmm14
	vmulss	-28(%rsp), %xmm14, %xmm15
	.loc 4 69 0
	vunpcklps	%xmm15, %xmm15, %xmm15
	vcvtps2pd	%xmm15, %xmm15
	jmp	.L536
.LVL848:
	.p2align 4,,10
	.p2align 3
.L587:
	.loc 4 71 0
	vmovss	.LC20(%rip), %xmm15
	vmulss	-32(%rsp), %xmm15, %xmm14
.LBE2814:
.LBB2815:
.LBB2785:
	.loc 4 73 0
	vunpcklps	%xmm14, %xmm14, %xmm14
	vcvtps2pd	%xmm14, %xmm14
	jmp	.L529
.LBE2785:
.LBE2815:
.LBE2942:
.LBE2958:
.LBE2974:
.LBE2990:
.LBE3003:
.LBE3006:
.LBE3009:
	.cfi_endproc
.LFE2316:
	.size	_ZN12FieldDataCPU7intrpETILi1EL15FieldData_deriv1EEEddddiii, .-_ZN12FieldDataCPU7intrpETILi1EL15FieldData_deriv1EEEddddiii
	.section	.text._ZN12FieldDataCPU7intrpETILi2EL15FieldData_deriv1EEEddddiii,"axG",@progbits,_ZN12FieldDataCPU7intrpETILi2EL15FieldData_deriv1EEEddddiii,comdat
	.align 2
	.p2align 4,,15
	.weak	_ZN12FieldDataCPU7intrpETILi2EL15FieldData_deriv1EEEddddiii
	.type	_ZN12FieldDataCPU7intrpETILi2EL15FieldData_deriv1EEEddddiii, @function
_ZN12FieldDataCPU7intrpETILi2EL15FieldData_deriv1EEEddddiii:
.LFB2317:
	.loc 3 253 0
	.cfi_startproc
.LVL849:
	pushq	%r15
	.cfi_def_cfa_offset 16
	.cfi_offset 15, -16
.LBB3031:
.LBB3032:
	.loc 3 301 0
	vxorpd	%xmm12, %xmm12, %xmm12
.LBE3032:
.LBE3031:
	.loc 3 253 0
	pushq	%r14
	.cfi_def_cfa_offset 24
	.cfi_offset 14, -24
	pushq	%r13
	.cfi_def_cfa_offset 32
	.cfi_offset 13, -32
	pushq	%r12
	.cfi_def_cfa_offset 40
	.cfi_offset 12, -40
	pushq	%rbp
	.cfi_def_cfa_offset 48
	.cfi_offset 6, -48
	pushq	%rbx
	.cfi_def_cfa_offset 56
	.cfi_offset 3, -56
.LBB3330:
.LBB3327:
	.loc 3 257 0
	cmpl	$1, 92(%rdi)
.LBE3327:
.LBE3330:
	.loc 3 253 0
	vmovsd	%xmm2, -16(%rsp)
	movl	%ecx, -4(%rsp)
.LBB3331:
.LBB3328:
	.loc 3 257 0
	je	.L591
	movl	72(%rdi), %r9d
	vmovsd	.LC17(%rip), %xmm6
	leal	-1(%rsi), %r10d
	movl	80(%rdi), %eax
	vmovss	.LC11(%rip), %xmm11
	vsubsd	%xmm0, %xmm6, %xmm13
	vmovss	.LC15(%rip), %xmm7
	leal	-1(%r9), %ecx
.LVL850:
	vmovsd	.LC2(%rip), %xmm5
	movl	%eax, -8(%rsp)
	subl	$1, %eax
	movl	76(%rdi), %r14d
	andl	%ecx, %r10d
	movl	%eax, -24(%rsp)
	vsubsd	%xmm0, %xmm5, %xmm2
.LVL851:
	addl	%r9d, %r10d
	vmovddup	%xmm13, %xmm13
	andl	%ecx, %r10d
	vmovsd	96(%rdi), %xmm3
	movl	%r10d, %eax
	vmovsd	.LC18(%rip), %xmm4
	sall	$16, %eax
	vmovddup	%xmm2, %xmm2
	orl	%r10d, %eax
	vsubsd	%xmm0, %xmm4, %xmm0
.LVL852:
	leal	-1(%r14), %r8d
	vcvtpd2psx	%xmm13, %xmm13
	andl	$50331903, %eax
.LBB3033:
.LBB3034:
.LBB3035:
.LBB3036:
.LBB3037:
.LBB3038:
	.loc 3 159 0
	movl	%edx, %r15d
.LBE3038:
.LBE3037:
.LBE3036:
.LBE3035:
.LBE3034:
.LBE3033:
	.loc 3 257 0
	movl	%eax, %r10d
.LBB3311:
.LBB3291:
.LBB3271:
.LBB3251:
	.loc 3 405 0
	vsubsd	%xmm1, %xmm6, %xmm6
.LBE3251:
.LBE3271:
.LBE3291:
.LBE3311:
	.loc 3 257 0
	sall	$8, %r10d
	vmovddup	%xmm0, %xmm0
	orl	%eax, %r10d
.LBB3312:
.LBB3292:
.LBB3272:
.LBB3252:
	.loc 3 405 0
	vsubsd	%xmm1, %xmm5, %xmm5
.LBE3252:
.LBE3272:
.LBE3292:
.LBE3312:
	.loc 3 257 0
	andl	$50393103, %r10d
.LBB3313:
.LBB3293:
.LBB3273:
.LBB3253:
	.loc 3 405 0
	vsubsd	%xmm1, %xmm4, %xmm4
.LBE3253:
.LBE3273:
.LBE3293:
.LBE3313:
	.loc 3 257 0
	movl	%r10d, %eax
.LBB3314:
.LBB3294:
.LBB3274:
.LBB3254:
	.loc 3 414 0
	vmovddup	%xmm6, %xmm6
.LBE3254:
.LBE3274:
.LBE3294:
.LBE3314:
	.loc 3 257 0
	sall	$4, %eax
	vmovss	.LC13(%rip), %xmm10
	orl	%r10d, %eax
	vmovaps	%xmm13, %xmm9
	andl	$51130563, %eax
	movl	%esi, %r10d
	vandps	%xmm11, %xmm9, %xmm9
	leal	0(,%rax,4), %r13d
	vcvtpd2psx	%xmm2, %xmm2
	orl	%eax, %r13d
	movq	32(%rdi), %rax
	andl	$153391689, %r13d
.LBB3315:
.LBB3295:
.LBB3275:
.LBB3255:
	.loc 3 414 0
	vmovddup	%xmm5, %xmm5
.LBE3255:
.LBE3275:
.LBE3295:
.LBE3315:
	.loc 3 257 0
	vucomiss	%xmm9, %xmm7
	vcvtpd2psx	%xmm0, %xmm0
.LBB3316:
.LBB3296:
.LBB3276:
.LBB3256:
	.loc 3 414 0
	vmovddup	%xmm4, %xmm4
.LBB3087:
.LBB3088:
.LBB3089:
	.loc 4 73 0
	vmovsd	%xmm12, -48(%rsp)
.LBE3089:
.LBE3088:
.LBE3087:
.LBE3256:
.LBE3276:
.LBE3296:
.LBE3316:
	.loc 3 257 0
	setae	%bl
	andl	%ecx, %r10d
	addl	%r9d, %r10d
	vmovaps	%xmm2, %xmm8
	andl	%ecx, %r10d
	vmovss	%xmm2, -32(%rsp)
	movl	%r10d, %edi
.LVL853:
	vandps	%xmm11, %xmm8, %xmm8
	sall	$16, %edi
.LBB3317:
.LBB3297:
.LBB3277:
.LBB3257:
.LBB3150:
.LBB3109:
.LBB3090:
	.loc 4 73 0
	vmovss	.LC14(%rip), %xmm2
.LBE3090:
.LBE3109:
.LBE3150:
.LBE3257:
.LBE3277:
.LBE3297:
.LBE3317:
	.loc 3 257 0
	orl	%r10d, %edi
	vmovss	%xmm0, -28(%rsp)
	andl	$50331903, %edi
	vandps	%xmm11, %xmm0, %xmm0
	movl	%edi, %r10d
	sall	$8, %r10d
	orl	%edi, %r10d
	andl	$50393103, %r10d
	movl	%r10d, %edi
	sall	$4, %edi
	orl	%r10d, %edi
	andl	$51130563, %edi
	leal	0(,%rdi,4), %r12d
.LBB3318:
.LBB3298:
.LBB3278:
.LBB3258:
	.loc 3 414 0
	vcvtpd2psx	%xmm6, %xmm6
.LBE3258:
.LBE3278:
.LBE3298:
.LBE3318:
	.loc 3 257 0
	orl	%edi, %r12d
	andl	$153391689, %r12d
	vucomiss	%xmm8, %xmm7
.LBB3319:
.LBB3299:
.LBB3279:
.LBB3259:
	.loc 3 414 0
	vcvtpd2psx	%xmm5, %xmm5
	vcvtpd2psx	%xmm4, %xmm4
.LBE3259:
.LBE3279:
.LBE3299:
.LBE3319:
	.loc 3 257 0
	setae	%r11b
	addl	$1, %esi
.LVL854:
	andl	%ecx, %esi
.LVL855:
.LBB3320:
.LBB3300:
.LBB3280:
.LBB3260:
.LBB3151:
.LBB3152:
	.loc 4 35 0
	vandps	%xmm11, %xmm6, %xmm6
.LBE3152:
.LBE3151:
.LBE3260:
.LBE3280:
.LBE3300:
.LBE3320:
	.loc 3 257 0
	addl	%esi, %r9d
	andl	%ecx, %r9d
	movl	%r9d, %ecx
	sall	$16, %ecx
.LBB3321:
.LBB3301:
.LBB3281:
.LBB3261:
.LBB3176:
.LBB3153:
	.loc 4 35 0
	vandps	%xmm11, %xmm5, %xmm5
.LBE3153:
.LBE3176:
.LBE3261:
.LBE3281:
.LBE3301:
.LBE3321:
	.loc 3 257 0
	orl	%r9d, %ecx
.LBB3322:
.LBB3302:
.LBB3282:
.LBB3262:
	.loc 3 402 0
	leal	-1(%rdx), %r9d
.LBE3262:
.LBE3282:
.LBE3302:
.LBE3322:
	.loc 3 257 0
	andl	$50331903, %ecx
.LBB3323:
.LBB3303:
.LBB3283:
.LBB3263:
.LBB3177:
.LBB3154:
	.loc 4 35 0
	vandps	%xmm11, %xmm4, %xmm4
.LBE3154:
.LBE3177:
.LBE3263:
.LBE3283:
.LBE3303:
.LBE3323:
	.loc 3 257 0
	movl	%ecx, %esi
	sall	$8, %esi
	orl	%ecx, %esi
	andl	$50393103, %esi
	movl	%esi, %ecx
	sall	$4, %ecx
	orl	%esi, %ecx
	andl	$51130563, %ecx
	leal	0(,%rcx,4), %ebp
	orl	%ecx, %ebp
.LBB3324:
.LBB3304:
.LBB3284:
.LBB3264:
.LBB3178:
.LBB3110:
.LBB3091:
	.loc 4 73 0
	movq	-48(%rsp), %rcx
.LBE3091:
.LBE3110:
.LBE3178:
.LBE3264:
.LBE3284:
.LBE3304:
.LBE3324:
	.loc 3 257 0
	andl	$153391689, %ebp
	vucomiss	%xmm0, %xmm7
	setae	%r10b
.LBB3325:
.LBB3305:
.LBB3285:
.LBB3265:
.LBB3179:
.LBB3111:
.LBB3092:
	.loc 4 73 0
	vucomiss	%xmm9, %xmm2
.LBE3092:
.LBE3111:
.LBB3112:
	.loc 4 71 0
	vmovss	.LC20(%rip), %xmm9
.LBE3112:
.LBB3113:
.LBB3093:
	.loc 4 73 0
	setae	-19(%rsp)
	vucomiss	%xmm8, %xmm2
.LBE3093:
.LBE3113:
.LBE3179:
.LBB3180:
.LBB3155:
	.loc 4 39 0
	vmovss	.LC16(%rip), %xmm8
.LBE3155:
.LBE3180:
.LBB3181:
.LBB3114:
.LBB3094:
	.loc 4 73 0
	setae	-18(%rsp)
	vucomiss	%xmm0, %xmm2
	setae	-17(%rsp)
.LBE3094:
.LBE3114:
.LBE3181:
.LBB3182:
.LBB3065:
	.loc 3 159 0
	andl	%r8d, %r9d
	andl	%r8d, %r15d
	addl	%r14d, %r9d
	addl	%r14d, %r15d
.LBE3065:
.LBE3182:
	.loc 3 402 0
	addl	$1, %edx
.LVL856:
.LBB3183:
.LBB3066:
	.loc 3 159 0
	andl	%r8d, %r9d
	andl	%r8d, %r15d
	andl	%r8d, %edx
.LVL857:
.LBB3039:
.LBB3040:
	.loc 3 19 0
	movl	%r9d, %edi
.LBE3040:
.LBE3039:
.LBE3066:
.LBE3183:
.LBB3184:
.LBB3115:
.LBB3095:
	.loc 4 73 0
	xorl	%esi, %esi
.LBE3095:
.LBE3115:
.LBE3184:
.LBB3185:
.LBB3067:
.LBB3053:
.LBB3041:
	.loc 3 19 0
	sall	$16, %edi
	orl	%r9d, %edi
	andl	$50331903, %edi
	.loc 3 20 0
	movl	%edi, %r9d
	sall	$8, %r9d
	orl	%edi, %r9d
	andl	$50393103, %r9d
	.loc 3 21 0
	movl	%r9d, %edi
	sall	$4, %edi
	orl	%r9d, %edi
	andl	$51130563, %edi
	.loc 3 22 0
	leal	0(,%rdi,4), %r9d
	orl	%edi, %r9d
	.loc 3 19 0
	movl	%r15d, %edi
	sall	$16, %edi
	.loc 3 22 0
	andl	$153391689, %r9d
	.loc 3 19 0
	orl	%r15d, %edi
	.loc 3 29 0
	addl	%r9d, %r9d
	.loc 3 19 0
	andl	$50331903, %edi
	.loc 3 20 0
	movl	%edi, %r15d
	sall	$8, %r15d
	orl	%edi, %r15d
	andl	$50393103, %r15d
	.loc 3 21 0
	movl	%r15d, %edi
	sall	$4, %edi
	orl	%r15d, %edi
	andl	$51130563, %edi
	.loc 3 22 0
	leal	0(,%rdi,4), %r15d
	orl	%edi, %r15d
	andl	$153391689, %r15d
	.loc 3 29 0
	addl	%r15d, %r15d
.LBE3041:
.LBE3053:
	.loc 3 159 0
	addl	%r14d, %edx
	andl	%r8d, %edx
.LBB3054:
.LBB3042:
	.loc 3 29 0
	movl	%r15d, -40(%rsp)
	.loc 3 19 0
	movl	%edx, %edi
	sall	$16, %edi
	orl	%edx, %edi
	andl	$50331903, %edi
	.loc 3 20 0
	movl	%edi, %edx
	sall	$8, %edx
	orl	%edi, %edx
	andl	$50393103, %edx
	.loc 3 21 0
	movl	%edx, %edi
	sall	$4, %edi
	orl	%edx, %edi
	andl	$51130563, %edi
	.loc 3 22 0
	leal	0(,%rdi,4), %edx
	orl	%edi, %edx
	andl	$153391689, %edx
	.loc 3 29 0
	addl	%edx, %edx
	movl	%edx, -36(%rsp)
.LVL858:
.L592:
.LBE3042:
.LBE3054:
.LBE3067:
.LBE3185:
.LBE3265:
.LBE3285:
.LBE3305:
	.loc 3 394 0 discriminator 1
	vcvtsi2sd	%esi, %xmm1, %xmm1
	.loc 3 253 0 discriminator 1
	movl	-4(%rsp), %edi
.LBB3306:
.LBB3286:
.LBB3266:
.LBB3186:
.LBB3187:
	.loc 4 23 0 discriminator 1
	vxorps	%xmm0, %xmm0, %xmm0
.LBE3187:
.LBE3186:
.LBE3266:
.LBE3286:
.LBE3306:
	.loc 3 253 0 discriminator 1
	addl	%esi, %edi
	.loc 3 394 0 discriminator 1
	andl	-24(%rsp), %edi
	addl	-8(%rsp), %edi
	andl	-24(%rsp), %edi
	movl	%edi, %edx
	sall	$16, %edx
	vsubsd	-16(%rsp), %xmm1, %xmm1
	orl	%edi, %edx
	andl	$50331903, %edx
	movl	%edx, %edi
	sall	$8, %edi
	orl	%edx, %edi
	andl	$50393103, %edi
	vmovddup	%xmm1, %xmm1
	movl	%edi, %edx
	sall	$4, %edx
	orl	%edi, %edx
	vcvtpd2psx	%xmm1, %xmm1
	andl	$51130563, %edx
	leal	0(,%rdx,4), %edi
	orl	%edx, %edi
	andl	$153391689, %edi
	sall	$2, %edi
	movl	%edi, %r8d
	movl	%edi, %edx
	orl	%ebp, %edi
	vandps	%xmm11, %xmm1, %xmm1
	orl	%r13d, %r8d
.LBB3307:
.LBB3287:
.LBB3267:
.LBB3190:
.LBB3068:
.LBB3055:
.LBB3043:
	.loc 3 29 0 discriminator 1
	movl	%r8d, %r14d
.LBE3043:
.LBE3055:
.LBE3068:
.LBE3190:
.LBE3267:
.LBE3287:
.LBE3307:
	.loc 3 394 0 discriminator 1
	orl	%r12d, %edx
.LBB3308:
.LBB3288:
.LBB3268:
.LBB3191:
.LBB3069:
.LBB3056:
.LBB3044:
	.loc 3 29 0 discriminator 1
	orl	%r9d, %r14d
.LBE3044:
.LBE3056:
.LBE3069:
.LBE3191:
.LBB3192:
.LBB3116:
	.loc 4 69 0 discriminator 1
	testb	%bl, %bl
.LBE3116:
.LBE3192:
.LBB3193:
.LBB3188:
	.loc 4 23 0 discriminator 1
	vsubss	%xmm1, %xmm10, %xmm14
.LBE3188:
.LBE3193:
.LBB3194:
.LBB3070:
	.loc 3 175 0 discriminator 1
	movslq	%r14d, %r14
.LBE3070:
.LBE3194:
.LBB3195:
.LBB3189:
	.loc 4 23 0 discriminator 1
	vcmpngess	%xmm1, %xmm10, %xmm1
	vandps	%xmm1, %xmm0, %xmm15
	vandnps	%xmm10, %xmm1, %xmm1
	vorps	%xmm15, %xmm1, %xmm0
	vmulss	%xmm0, %xmm14, %xmm0
.LBE3189:
.LBE3195:
	.loc 3 402 0 discriminator 1
	vmovsd	(%rax,%r14,8), %xmm14
	.loc 3 414 0 discriminator 1
	vunpcklps	%xmm0, %xmm0, %xmm0
	vcvtps2pd	%xmm0, %xmm0
.LVL859:
.LBB3196:
.LBB3117:
	.loc 4 69 0 discriminator 1
	jne	.L615
.LVL860:
.LBE3117:
.LBB3118:
.LBB3096:
	.loc 4 73 0
	cmpb	$0, -19(%rsp)
	movq	%rcx, -48(%rsp)
	vmovsd	-48(%rsp), %xmm1
	je	.L617
.LVL861:
	.loc 4 75 0
	vsubss	%xmm13, %xmm2, %xmm1
	.loc 4 73 0
	vunpcklps	%xmm1, %xmm1, %xmm1
	vcvtps2pd	%xmm1, %xmm1
.LVL862:
.L617:
.LBE3096:
.LBE3118:
.LBE3196:
.LBB3197:
.LBB3156:
	.loc 4 37 0
	vucomiss	%xmm6, %xmm7
.LBE3156:
.LBE3197:
	.loc 3 414 0
	vmulsd	%xmm1, %xmm14, %xmm1
.LVL863:
.LBB3198:
.LBB3157:
	.loc 4 37 0
	setae	%r14b
.LVL864:
	jae	.L618
	.loc 4 41 0
	vucomiss	%xmm6, %xmm2
	jb	.L681
	.loc 4 43 0
	vsubss	%xmm6, %xmm2, %xmm14
.LVL865:
	vmulss	%xmm7, %xmm14, %xmm15
	vmulss	%xmm15, %xmm14, %xmm14
.LVL866:
	vunpcklps	%xmm14, %xmm14, %xmm14
	vcvtps2pd	%xmm14, %xmm14
	jmp	.L619
.LVL867:
	.p2align 4,,10
	.p2align 3
.L648:
	.loc 4 39 0
	vmulss	%xmm5, %xmm5, %xmm14
.LVL868:
	vmovss	.LC16(%rip), %xmm15
	vsubss	%xmm14, %xmm15, %xmm14
	.loc 4 43 0
	vunpcklps	%xmm14, %xmm14, %xmm14
	vcvtps2pd	%xmm14, %xmm14
.L649:
.LVL869:
.LBE3157:
.LBE3198:
	.loc 3 414 0
	vmulsd	%xmm14, %xmm1, %xmm1
.LBB3199:
.LBB3071:
.LBB3057:
.LBB3045:
	.loc 3 29 0
	orl	-36(%rsp), %r8d
.LBE3045:
.LBE3057:
.LBE3071:
.LBE3199:
.LBB3200:
.LBB3119:
	.loc 4 69 0
	testb	%bl, %bl
.LBE3119:
.LBE3200:
	.loc 3 414 0
	vmulsd	%xmm1, %xmm0, %xmm1
.LBB3201:
.LBB3072:
	.loc 3 175 0
	movslq	%r8d, %r8
.LBE3072:
.LBE3201:
	.loc 3 402 0
	vmovsd	(%rax,%r8,8), %xmm14
	.loc 3 414 0
	vdivsd	%xmm3, %xmm1, %xmm1
	vaddsd	%xmm1, %xmm12, %xmm1
.LVL870:
.LBB3202:
.LBB3120:
	.loc 4 69 0
	jne	.L689
.LVL871:
.LBE3120:
.LBB3121:
.LBB3097:
	.loc 4 73 0
	cmpb	$0, -19(%rsp)
	je	.L690
.LVL872:
	.loc 4 75 0
	vsubss	%xmm13, %xmm2, %xmm12
	.loc 4 73 0
	vunpcklps	%xmm12, %xmm12, %xmm12
	vcvtps2pd	%xmm12, %xmm12
.LVL873:
.L593:
.LBE3097:
.LBE3121:
.LBE3202:
.LBB3203:
.LBB3158:
	.loc 4 37 0
	vucomiss	%xmm4, %xmm7
.LBE3158:
.LBE3203:
	.loc 3 414 0
	vmulsd	%xmm12, %xmm14, %xmm12
.LVL874:
.LBB3204:
.LBB3159:
	.loc 4 37 0
	setae	%r8b
.LVL875:
	jb	.L596
.LVL876:
	.loc 4 39 0
	vmulss	%xmm4, %xmm4, %xmm14
.LVL877:
	vmovss	.LC16(%rip), %xmm15
	vsubss	%xmm14, %xmm15, %xmm14
	.loc 4 37 0
	vunpcklps	%xmm14, %xmm14, %xmm14
	vcvtps2pd	%xmm14, %xmm14
.L597:
.LBE3159:
.LBE3204:
	.loc 3 414 0
	vmulsd	%xmm14, %xmm12, %xmm12
.LBB3205:
.LBB3073:
.LBB3058:
.LBB3046:
	.loc 3 29 0
	orl	-36(%rsp), %edx
.LBE3046:
.LBE3058:
.LBE3073:
.LBE3205:
.LBB3206:
.LBB3122:
	.loc 4 69 0
	testb	%r11b, %r11b
.LBE3122:
.LBE3206:
	.loc 3 414 0
	vmulsd	%xmm0, %xmm12, %xmm12
.LBB3207:
.LBB3074:
	.loc 3 175 0
	movslq	%edx, %rdx
.LBE3074:
.LBE3207:
	.loc 3 402 0
	vmovsd	(%rax,%rdx,8), %xmm14
	.loc 3 414 0
	vdivsd	%xmm3, %xmm12, %xmm12
	vaddsd	%xmm1, %xmm12, %xmm1
.LVL878:
.LBB3208:
.LBB3123:
	.loc 4 69 0
	jne	.L691
.LVL879:
.LBE3123:
.LBB3124:
.LBB3098:
	.loc 4 73 0
	cmpb	$0, -18(%rsp)
	je	.L692
.LVL880:
	.loc 4 75 0
	vsubss	-32(%rsp), %xmm2, %xmm12
	.loc 4 73 0
	vunpcklps	%xmm12, %xmm12, %xmm12
	vcvtps2pd	%xmm12, %xmm12
.LVL881:
.L600:
.LBE3098:
.LBE3124:
.LBE3208:
.LBB3209:
.LBB3160:
	.loc 4 37 0
	testb	%r8b, %r8b
.LBE3160:
.LBE3209:
	.loc 3 414 0
	vmulsd	%xmm12, %xmm14, %xmm12
.LVL882:
.LBB3210:
.LBB3161:
	.loc 4 37 0
	je	.L603
.LVL883:
	.loc 4 39 0
	vmulss	%xmm4, %xmm4, %xmm14
	vmovss	.LC16(%rip), %xmm15
	vsubss	%xmm14, %xmm15, %xmm14
	.loc 4 37 0
	vunpcklps	%xmm14, %xmm14, %xmm14
	vcvtps2pd	%xmm14, %xmm14
.L604:
.LBE3161:
.LBE3210:
	.loc 3 414 0
	vmulsd	%xmm14, %xmm12, %xmm12
.LBB3211:
.LBB3075:
.LBB3059:
.LBB3047:
	.loc 3 29 0
	orl	-36(%rsp), %edi
.LBE3047:
.LBE3059:
.LBE3075:
.LBE3211:
.LBB3212:
.LBB3125:
	.loc 4 69 0
	testb	%r10b, %r10b
.LBE3125:
.LBE3212:
	.loc 3 414 0
	vmulsd	%xmm12, %xmm0, %xmm12
.LBB3213:
.LBB3076:
	.loc 3 175 0
	movslq	%edi, %rdi
.LBE3076:
.LBE3213:
	.loc 3 402 0
	vmovsd	(%rax,%rdi,8), %xmm14
	.loc 3 414 0
	vdivsd	%xmm3, %xmm12, %xmm12
	vaddsd	%xmm12, %xmm1, %xmm1
.LVL884:
.LBB3214:
.LBB3126:
	.loc 4 69 0
	jne	.L693
.LVL885:
.LBE3126:
.LBB3127:
.LBB3099:
	.loc 4 73 0
	cmpb	$0, -17(%rsp)
	je	.L694
.LVL886:
	.loc 4 75 0
	vsubss	-28(%rsp), %xmm2, %xmm12
	.loc 4 73 0
	vunpcklps	%xmm12, %xmm12, %xmm12
	vcvtps2pd	%xmm12, %xmm12
.LVL887:
.L607:
.LBE3099:
.LBE3127:
.LBE3214:
.LBB3215:
.LBB3162:
	.loc 4 37 0
	testb	%r8b, %r8b
.LBE3162:
.LBE3215:
	.loc 3 414 0
	vmulsd	%xmm12, %xmm14, %xmm12
.LVL888:
.LBB3216:
.LBB3163:
	.loc 4 37 0
	je	.L610
.LVL889:
	.loc 4 39 0
	vmulss	%xmm4, %xmm4, %xmm14
	vmovss	.LC16(%rip), %xmm15
	vsubss	%xmm14, %xmm15, %xmm14
	.loc 4 37 0
	vunpcklps	%xmm14, %xmm14, %xmm14
	vcvtps2pd	%xmm14, %xmm14
.L611:
.LBE3163:
.LBE3216:
	.loc 3 414 0
	vmulsd	%xmm14, %xmm12, %xmm12
	addq	$1, %rsi
.LBE3268:
.LBE3288:
.LBE3308:
	.loc 3 394 0
	cmpq	$2, %rsi
.LBB3309:
.LBB3289:
.LBB3269:
	.loc 3 414 0
	vmulsd	%xmm12, %xmm0, %xmm12
	vdivsd	%xmm3, %xmm12, %xmm12
	vaddsd	%xmm12, %xmm1, %xmm12
.LVL890:
.LBE3269:
.LBE3289:
.LBE3309:
	.loc 3 394 0
	jne	.L592
.LVL891:
.L591:
.LBE3325:
.LBE3328:
.LBE3331:
	.loc 3 434 0
	popq	%rbx
	.cfi_remember_state
	.cfi_def_cfa_offset 48
	popq	%rbp
	.cfi_def_cfa_offset 40
	popq	%r12
	.cfi_def_cfa_offset 32
	popq	%r13
	.cfi_def_cfa_offset 24
	popq	%r14
	.cfi_def_cfa_offset 16
	popq	%r15
	.cfi_def_cfa_offset 8
	vmovapd	%xmm12, %xmm0
	ret
.LVL892:
	.p2align 4,,10
	.p2align 3
.L618:
	.cfi_restore_state
.LBB3332:
.LBB3329:
.LBB3326:
.LBB3310:
.LBB3290:
.LBB3270:
.LBB3217:
.LBB3164:
	.loc 4 39 0
	vmulss	%xmm6, %xmm6, %xmm14
.LVL893:
	vsubss	%xmm14, %xmm8, %xmm14
	.loc 4 43 0
	vunpcklps	%xmm14, %xmm14, %xmm14
	vcvtps2pd	%xmm14, %xmm14
.L619:
.LBE3164:
.LBE3217:
	.loc 3 414 0
	vmulsd	%xmm14, %xmm1, %xmm1
.LBB3218:
.LBB3077:
.LBB3060:
.LBB3048:
	.loc 3 29 0
	movl	%edx, %r15d
	orl	%r9d, %r15d
.LBE3048:
.LBE3060:
.LBE3077:
.LBE3218:
.LBB3219:
.LBB3128:
	.loc 4 69 0
	testb	%r11b, %r11b
.LBE3128:
.LBE3219:
.LBB3220:
.LBB3078:
	.loc 3 175 0
	movslq	%r15d, %r15
.LBE3078:
.LBE3220:
	.loc 3 402 0
	vmovsd	(%rax,%r15,8), %xmm14
	.loc 3 414 0
	vmulsd	%xmm0, %xmm1, %xmm1
	vdivsd	%xmm3, %xmm1, %xmm1
	vaddsd	%xmm12, %xmm1, %xmm12
.LVL894:
.LBB3221:
.LBB3129:
	.loc 4 69 0
	jne	.L695
.LVL895:
.LBE3129:
.LBB3130:
.LBB3100:
	.loc 4 73 0
	cmpb	$0, -18(%rsp)
	movq	%rcx, -48(%rsp)
	vmovsd	-48(%rsp), %xmm1
	je	.L622
.LVL896:
	.loc 4 75 0
	vsubss	-32(%rsp), %xmm2, %xmm1
	.loc 4 73 0
	vunpcklps	%xmm1, %xmm1, %xmm1
	vcvtps2pd	%xmm1, %xmm1
.LVL897:
.L622:
.LBE3100:
.LBE3130:
.LBE3221:
.LBB3222:
.LBB3165:
	.loc 4 37 0
	testb	%r14b, %r14b
.LBE3165:
.LBE3222:
	.loc 3 414 0
	vmulsd	%xmm1, %xmm14, %xmm1
.LVL898:
.LBB3223:
.LBB3166:
	.loc 4 37 0
	jne	.L624
	.loc 4 41 0
	vucomiss	%xmm6, %xmm2
	jb	.L682
	.loc 4 43 0
	vsubss	%xmm6, %xmm2, %xmm14
.LVL899:
	vmulss	%xmm7, %xmm14, %xmm15
	vmulss	%xmm15, %xmm14, %xmm14
.LVL900:
	vunpcklps	%xmm14, %xmm14, %xmm14
	vcvtps2pd	%xmm14, %xmm14
	jmp	.L625
.LVL901:
	.p2align 4,,10
	.p2align 3
.L624:
	.loc 4 39 0
	vmulss	%xmm6, %xmm6, %xmm14
	vmovss	.LC16(%rip), %xmm15
	vsubss	%xmm14, %xmm15, %xmm14
	.loc 4 43 0
	vunpcklps	%xmm14, %xmm14, %xmm14
	vcvtps2pd	%xmm14, %xmm14
.L625:
.LBE3166:
.LBE3223:
	.loc 3 414 0
	vmulsd	%xmm14, %xmm1, %xmm1
.LBB3224:
.LBB3079:
.LBB3061:
.LBB3049:
	.loc 3 29 0
	movl	%edi, %r15d
.LVL902:
	orl	%r9d, %r15d
.LBE3049:
.LBE3061:
.LBE3079:
.LBE3224:
.LBB3225:
.LBB3131:
	.loc 4 69 0
	testb	%r10b, %r10b
.LBE3131:
.LBE3225:
.LBB3226:
.LBB3080:
	.loc 3 175 0
	movslq	%r15d, %r15
.LBE3080:
.LBE3226:
	.loc 3 402 0
	vmovsd	(%rax,%r15,8), %xmm14
	.loc 3 414 0
	vmulsd	%xmm1, %xmm0, %xmm1
	vdivsd	%xmm3, %xmm1, %xmm1
	vaddsd	%xmm1, %xmm12, %xmm12
.LVL903:
.LBB3227:
.LBB3132:
	.loc 4 69 0
	jne	.L696
.LVL904:
.LBE3132:
.LBB3133:
.LBB3101:
	.loc 4 73 0
	cmpb	$0, -17(%rsp)
	movq	%rcx, -48(%rsp)
	vmovsd	-48(%rsp), %xmm1
	je	.L628
.LVL905:
	.loc 4 75 0
	vsubss	-28(%rsp), %xmm2, %xmm1
	.loc 4 73 0
	vunpcklps	%xmm1, %xmm1, %xmm1
	vcvtps2pd	%xmm1, %xmm1
.LVL906:
.L628:
.LBE3101:
.LBE3133:
.LBE3227:
.LBB3228:
.LBB3167:
	.loc 4 37 0
	testb	%r14b, %r14b
.LBE3167:
.LBE3228:
	.loc 3 414 0
	vmulsd	%xmm1, %xmm14, %xmm1
.LVL907:
.LBB3229:
.LBB3168:
	.loc 4 37 0
	jne	.L630
	.loc 4 41 0
	vucomiss	%xmm6, %xmm2
	jb	.L683
	.loc 4 43 0
	vsubss	%xmm6, %xmm2, %xmm14
.LVL908:
	vmulss	%xmm7, %xmm14, %xmm15
	vmulss	%xmm15, %xmm14, %xmm14
.LVL909:
	vunpcklps	%xmm14, %xmm14, %xmm14
	vcvtps2pd	%xmm14, %xmm14
	jmp	.L631
.LVL910:
	.p2align 4,,10
	.p2align 3
.L630:
	.loc 4 39 0
	vmulss	%xmm6, %xmm6, %xmm14
	vmovss	.LC16(%rip), %xmm15
	vsubss	%xmm14, %xmm15, %xmm14
	.loc 4 43 0
	vunpcklps	%xmm14, %xmm14, %xmm14
	vcvtps2pd	%xmm14, %xmm14
.L631:
.LBE3168:
.LBE3229:
	.loc 3 414 0
	vmulsd	%xmm14, %xmm1, %xmm1
.LBB3230:
.LBB3081:
.LBB3062:
.LBB3050:
	.loc 3 29 0
	movl	-40(%rsp), %r14d
	orl	%r8d, %r14d
.LBE3050:
.LBE3062:
.LBE3081:
.LBE3230:
.LBB3231:
.LBB3134:
	.loc 4 69 0
	testb	%bl, %bl
.LBE3134:
.LBE3231:
	.loc 3 414 0
	vmulsd	%xmm1, %xmm0, %xmm1
.LBB3232:
.LBB3082:
	.loc 3 175 0
	movslq	%r14d, %r14
.LBE3082:
.LBE3232:
	.loc 3 402 0
	vmovsd	(%rax,%r14,8), %xmm14
	.loc 3 414 0
	vdivsd	%xmm3, %xmm1, %xmm1
	vaddsd	%xmm1, %xmm12, %xmm1
.LVL911:
.LBB3233:
.LBB3135:
	.loc 4 69 0
	jne	.L633
.LVL912:
.LBE3135:
.LBB3136:
.LBB3102:
	.loc 4 73 0
	cmpb	$0, -19(%rsp)
	movq	%rcx, -48(%rsp)
	vmovsd	-48(%rsp), %xmm12
	je	.L635
.LVL913:
	.loc 4 75 0
	vsubss	%xmm13, %xmm2, %xmm12
	.loc 4 73 0
	vunpcklps	%xmm12, %xmm12, %xmm12
	vcvtps2pd	%xmm12, %xmm12
.LVL914:
.L635:
.LBE3102:
.LBE3136:
.LBE3233:
.LBB3234:
.LBB3169:
	.loc 4 37 0
	vucomiss	%xmm5, %xmm7
.LBE3169:
.LBE3234:
	.loc 3 414 0
	vmulsd	%xmm12, %xmm14, %xmm12
.LVL915:
.LBB3235:
.LBB3170:
	.loc 4 37 0
	setae	%r14b
.LVL916:
	jae	.L636
	.loc 4 41 0
	vucomiss	%xmm5, %xmm2
	jb	.L684
	.loc 4 43 0
	vsubss	%xmm5, %xmm2, %xmm14
.LVL917:
	vmulss	%xmm7, %xmm14, %xmm15
	vmulss	%xmm15, %xmm14, %xmm14
.LVL918:
	vunpcklps	%xmm14, %xmm14, %xmm14
	vcvtps2pd	%xmm14, %xmm14
	jmp	.L637
.LVL919:
	.p2align 4,,10
	.p2align 3
.L636:
	.loc 4 39 0
	vmulss	%xmm5, %xmm5, %xmm14
.LVL920:
	vmovss	.LC16(%rip), %xmm15
	vsubss	%xmm14, %xmm15, %xmm14
	.loc 4 43 0
	vunpcklps	%xmm14, %xmm14, %xmm14
	vcvtps2pd	%xmm14, %xmm14
.L637:
.LBE3170:
.LBE3235:
	.loc 3 414 0
	vmulsd	%xmm14, %xmm12, %xmm14
.LBB3236:
.LBB3083:
.LBB3063:
.LBB3051:
	.loc 3 29 0
	movl	-40(%rsp), %r15d
	orl	%edx, %r15d
.LBE3051:
.LBE3063:
.LBE3083:
.LBE3236:
.LBB3237:
.LBB3137:
	.loc 4 69 0
	testb	%r11b, %r11b
.LBE3137:
.LBE3237:
	.loc 3 414 0
	vmulsd	%xmm0, %xmm14, %xmm14
.LBB3238:
.LBB3084:
	.loc 3 175 0
	movslq	%r15d, %r15
.LBE3084:
.LBE3238:
	.loc 3 402 0
	vmovsd	(%rax,%r15,8), %xmm12
	.loc 3 414 0
	vdivsd	%xmm3, %xmm14, %xmm14
	vaddsd	%xmm1, %xmm14, %xmm14
.LVL921:
.LBB3239:
.LBB3138:
	.loc 4 69 0
	jne	.L697
.LVL922:
.LBE3138:
.LBB3139:
.LBB3103:
	.loc 4 73 0
	cmpb	$0, -18(%rsp)
	movq	%rcx, -48(%rsp)
	vmovsd	-48(%rsp), %xmm1
	je	.L640
.LVL923:
	.loc 4 75 0
	vsubss	-32(%rsp), %xmm2, %xmm1
	.loc 4 73 0
	vunpcklps	%xmm1, %xmm1, %xmm1
	vcvtps2pd	%xmm1, %xmm1
.LVL924:
.L640:
.LBE3103:
.LBE3139:
.LBE3239:
.LBB3240:
.LBB3171:
	.loc 4 37 0
	testb	%r14b, %r14b
.LBE3171:
.LBE3240:
	.loc 3 414 0
	vmulsd	%xmm1, %xmm12, %xmm1
.LVL925:
.LBB3241:
.LBB3172:
	.loc 4 37 0
	jne	.L642
	.loc 4 41 0
	vucomiss	%xmm5, %xmm2
	jb	.L685
	.loc 4 43 0
	vsubss	%xmm5, %xmm2, %xmm12
.LVL926:
	vmulss	%xmm7, %xmm12, %xmm15
	vmulss	%xmm15, %xmm12, %xmm12
.LVL927:
	vunpcklps	%xmm12, %xmm12, %xmm12
	vcvtps2pd	%xmm12, %xmm12
	jmp	.L643
.LVL928:
	.p2align 4,,10
	.p2align 3
.L642:
	.loc 4 39 0
	vmulss	%xmm5, %xmm5, %xmm12
	vmovss	.LC16(%rip), %xmm15
	vsubss	%xmm12, %xmm15, %xmm12
	.loc 4 43 0
	vunpcklps	%xmm12, %xmm12, %xmm12
	vcvtps2pd	%xmm12, %xmm12
.L643:
.LBE3172:
.LBE3241:
	.loc 3 414 0
	vmulsd	%xmm12, %xmm1, %xmm12
.LBB3242:
.LBB3085:
.LBB3064:
.LBB3052:
	.loc 3 29 0
	movl	-40(%rsp), %r15d
.LVL929:
	orl	%edi, %r15d
.LBE3052:
.LBE3064:
.LBE3085:
.LBE3242:
.LBB3243:
.LBB3140:
	.loc 4 69 0
	testb	%r10b, %r10b
.LBE3140:
.LBE3243:
	.loc 3 414 0
	vmulsd	%xmm12, %xmm0, %xmm12
.LBB3244:
.LBB3086:
	.loc 3 175 0
	movslq	%r15d, %r15
.LBE3086:
.LBE3244:
	.loc 3 414 0
	vdivsd	%xmm3, %xmm12, %xmm12
	vaddsd	%xmm12, %xmm14, %xmm12
.LVL930:
	.loc 3 402 0
	vmovsd	(%rax,%r15,8), %xmm14
.LVL931:
.LBB3245:
.LBB3141:
	.loc 4 69 0
	jne	.L698
.LVL932:
.LBE3141:
.LBB3142:
.LBB3104:
	.loc 4 73 0
	cmpb	$0, -17(%rsp)
	movq	%rcx, -48(%rsp)
	vmovsd	-48(%rsp), %xmm1
	je	.L646
.LVL933:
	.loc 4 75 0
	vsubss	-28(%rsp), %xmm2, %xmm1
	.loc 4 73 0
	vunpcklps	%xmm1, %xmm1, %xmm1
	vcvtps2pd	%xmm1, %xmm1
.LVL934:
.L646:
.LBE3104:
.LBE3142:
.LBE3245:
.LBB3246:
.LBB3173:
	.loc 4 37 0
	testb	%r14b, %r14b
.LBE3173:
.LBE3246:
	.loc 3 414 0
	vmulsd	%xmm1, %xmm14, %xmm1
.LVL935:
.LBB3247:
.LBB3174:
	.loc 4 37 0
	jne	.L648
	.loc 4 41 0
	vucomiss	%xmm5, %xmm2
	jb	.L686
	.loc 4 43 0
	vsubss	%xmm5, %xmm2, %xmm14
.LVL936:
	vmulss	%xmm7, %xmm14, %xmm15
	vmulss	%xmm15, %xmm14, %xmm14
.LVL937:
	vunpcklps	%xmm14, %xmm14, %xmm14
	vcvtps2pd	%xmm14, %xmm14
	jmp	.L649
.LVL938:
	.p2align 4,,10
	.p2align 3
.L596:
	.loc 4 41 0
	vucomiss	%xmm4, %xmm2
	jb	.L678
	.loc 4 43 0
	vsubss	%xmm4, %xmm2, %xmm14
.LVL939:
	vmulss	%xmm7, %xmm14, %xmm15
	vmulss	%xmm15, %xmm14, %xmm14
.LVL940:
	vunpcklps	%xmm14, %xmm14, %xmm14
	vcvtps2pd	%xmm14, %xmm14
	jmp	.L597
.LVL941:
	.p2align 4,,10
	.p2align 3
.L610:
	.loc 4 41 0
	vucomiss	%xmm4, %xmm2
	jb	.L680
	.loc 4 43 0
	vsubss	%xmm4, %xmm2, %xmm14
.LVL942:
	vmulss	%xmm7, %xmm14, %xmm15
	vmulss	%xmm15, %xmm14, %xmm14
.LVL943:
	vunpcklps	%xmm14, %xmm14, %xmm14
	vcvtps2pd	%xmm14, %xmm14
	jmp	.L611
.LVL944:
	.p2align 4,,10
	.p2align 3
.L603:
	.loc 4 41 0
	vucomiss	%xmm4, %xmm2
	jb	.L679
	.loc 4 43 0
	vsubss	%xmm4, %xmm2, %xmm14
.LVL945:
	vmulss	%xmm7, %xmm14, %xmm15
	vmulss	%xmm15, %xmm14, %xmm14
.LVL946:
	vunpcklps	%xmm14, %xmm14, %xmm14
	vcvtps2pd	%xmm14, %xmm14
	jmp	.L604
.LVL947:
	.p2align 4,,10
	.p2align 3
.L691:
.LBE3174:
.LBE3247:
.LBB3248:
.LBB3143:
	.loc 4 71 0
	vmovss	.LC20(%rip), %xmm15
	vmulss	-32(%rsp), %xmm15, %xmm12
	.loc 4 69 0
	vunpcklps	%xmm12, %xmm12, %xmm12
	vcvtps2pd	%xmm12, %xmm12
	jmp	.L600
.LVL948:
	.p2align 4,,10
	.p2align 3
.L698:
	.loc 4 71 0
	vmovss	.LC20(%rip), %xmm15
	vmulss	-28(%rsp), %xmm15, %xmm1
	.loc 4 69 0
	vunpcklps	%xmm1, %xmm1, %xmm1
	vcvtps2pd	%xmm1, %xmm1
	jmp	.L646
.LVL949:
	.p2align 4,,10
	.p2align 3
.L697:
	.loc 4 71 0
	vmovss	.LC20(%rip), %xmm15
	vmulss	-32(%rsp), %xmm15, %xmm1
	.loc 4 69 0
	vunpcklps	%xmm1, %xmm1, %xmm1
	vcvtps2pd	%xmm1, %xmm1
	jmp	.L640
.LVL950:
	.p2align 4,,10
	.p2align 3
.L689:
	.loc 4 71 0
	vmulss	.LC20(%rip), %xmm13, %xmm12
.LBE3143:
.LBB3144:
.LBB3105:
	.loc 4 73 0
	vunpcklps	%xmm12, %xmm12, %xmm12
	vcvtps2pd	%xmm12, %xmm12
	jmp	.L593
.LVL951:
	.p2align 4,,10
	.p2align 3
.L693:
.LBE3105:
.LBE3144:
.LBB3145:
	.loc 4 71 0
	vmovss	.LC20(%rip), %xmm15
	vmulss	-28(%rsp), %xmm15, %xmm12
	.loc 4 69 0
	vunpcklps	%xmm12, %xmm12, %xmm12
	vcvtps2pd	%xmm12, %xmm12
	jmp	.L607
.LVL952:
	.p2align 4,,10
	.p2align 3
.L633:
	.loc 4 71 0
	vmulss	.LC20(%rip), %xmm13, %xmm12
.LBE3145:
.LBB3146:
.LBB3106:
	.loc 4 73 0
	vunpcklps	%xmm12, %xmm12, %xmm12
	vcvtps2pd	%xmm12, %xmm12
	jmp	.L635
.LVL953:
	.p2align 4,,10
	.p2align 3
.L696:
.LBE3106:
.LBE3146:
.LBB3147:
	.loc 4 71 0
	vmovss	.LC20(%rip), %xmm15
	vmulss	-28(%rsp), %xmm15, %xmm1
	.loc 4 69 0
	vunpcklps	%xmm1, %xmm1, %xmm1
	vcvtps2pd	%xmm1, %xmm1
	jmp	.L628
.LVL954:
	.p2align 4,,10
	.p2align 3
.L695:
	.loc 4 71 0
	vmovss	.LC20(%rip), %xmm15
	vmulss	-32(%rsp), %xmm15, %xmm1
	.loc 4 69 0
	vunpcklps	%xmm1, %xmm1, %xmm1
	vcvtps2pd	%xmm1, %xmm1
	jmp	.L622
.LVL955:
	.p2align 4,,10
	.p2align 3
.L615:
	.loc 4 71 0
	vmulss	%xmm9, %xmm13, %xmm1
.LBE3147:
.LBB3148:
.LBB3107:
	.loc 4 73 0
	vunpcklps	%xmm1, %xmm1, %xmm1
	vcvtps2pd	%xmm1, %xmm1
	jmp	.L617
.LVL956:
	.p2align 4,,10
	.p2align 3
.L679:
.LBE3107:
.LBE3148:
.LBE3248:
.LBB3249:
.LBB3175:
	.loc 4 41 0
	movq	%rcx, -48(%rsp)
	vmovsd	-48(%rsp), %xmm14
.LVL957:
	jmp	.L604
.LVL958:
	.p2align 4,,10
	.p2align 3
.L680:
	movq	%rcx, -48(%rsp)
	vmovsd	-48(%rsp), %xmm14
.LVL959:
	jmp	.L611
.LVL960:
	.p2align 4,,10
	.p2align 3
.L678:
	movq	%rcx, -48(%rsp)
	vmovsd	-48(%rsp), %xmm14
.LVL961:
	jmp	.L597
.LVL962:
	.p2align 4,,10
	.p2align 3
.L686:
	movq	%rcx, -48(%rsp)
	vmovsd	-48(%rsp), %xmm14
	jmp	.L649
.LVL963:
	.p2align 4,,10
	.p2align 3
.L685:
	movq	%rcx, -48(%rsp)
	vmovsd	-48(%rsp), %xmm12
.LVL964:
	jmp	.L643
.LVL965:
	.p2align 4,,10
	.p2align 3
.L684:
	movq	%rcx, -48(%rsp)
	vmovsd	-48(%rsp), %xmm14
.LVL966:
	jmp	.L637
.LVL967:
	.p2align 4,,10
	.p2align 3
.L683:
	movq	%rcx, -48(%rsp)
	vmovsd	-48(%rsp), %xmm14
	jmp	.L631
.LVL968:
	.p2align 4,,10
	.p2align 3
.L682:
	movq	%rcx, -48(%rsp)
	vmovsd	-48(%rsp), %xmm14
.LVL969:
	jmp	.L625
.LVL970:
	.p2align 4,,10
	.p2align 3
.L681:
	movq	%rcx, -48(%rsp)
	vmovsd	-48(%rsp), %xmm14
.LVL971:
	jmp	.L619
.LVL972:
	.p2align 4,,10
	.p2align 3
.L694:
.LBE3175:
.LBE3249:
.LBB3250:
.LBB3149:
.LBB3108:
	.loc 4 73 0
	movq	%rcx, -48(%rsp)
	vmovsd	-48(%rsp), %xmm12
	jmp	.L607
.LVL973:
	.p2align 4,,10
	.p2align 3
.L692:
	movq	%rcx, -48(%rsp)
	vmovsd	-48(%rsp), %xmm12
	jmp	.L600
.LVL974:
	.p2align 4,,10
	.p2align 3
.L690:
	movq	%rcx, -48(%rsp)
	vmovsd	-48(%rsp), %xmm12
	jmp	.L593
.LBE3108:
.LBE3149:
.LBE3250:
.LBE3270:
.LBE3290:
.LBE3310:
.LBE3326:
.LBE3329:
.LBE3332:
	.cfi_endproc
.LFE2317:
	.size	_ZN12FieldDataCPU7intrpETILi2EL15FieldData_deriv1EEEddddiii, .-_ZN12FieldDataCPU7intrpETILi2EL15FieldData_deriv1EEEddddiii
	.section	.text._ZN12FieldDataCPU7intrpETILi0EL15FieldData_deriv2EEEddddiii,"axG",@progbits,_ZN12FieldDataCPU7intrpETILi0EL15FieldData_deriv2EEEddddiii,comdat
	.align 2
	.p2align 4,,15
	.weak	_ZN12FieldDataCPU7intrpETILi0EL15FieldData_deriv2EEEddddiii
	.type	_ZN12FieldDataCPU7intrpETILi0EL15FieldData_deriv2EEEddddiii, @function
_ZN12FieldDataCPU7intrpETILi0EL15FieldData_deriv2EEEddddiii:
.LFB2318:
	.loc 3 253 0
	.cfi_startproc
.LVL975:
	pushq	%r15
	.cfi_def_cfa_offset 16
	.cfi_offset 15, -16
.LBB3354:
.LBB3355:
	.loc 3 257 0
	vxorpd	%xmm6, %xmm6, %xmm6
.LBE3355:
.LBE3354:
	.loc 3 253 0
	pushq	%r14
	.cfi_def_cfa_offset 24
	.cfi_offset 14, -24
	pushq	%r13
	.cfi_def_cfa_offset 32
	.cfi_offset 13, -32
	pushq	%r12
	.cfi_def_cfa_offset 40
	.cfi_offset 12, -40
	pushq	%rbp
	.cfi_def_cfa_offset 48
	.cfi_offset 6, -48
	pushq	%rbx
	.cfi_def_cfa_offset 56
	.cfi_offset 3, -56
.LBB3719:
.LBB3716:
	.loc 3 257 0
	cmpl	$1, 92(%rdi)
.LBE3716:
.LBE3719:
	.loc 3 253 0
	vmovsd	%xmm2, -8(%rsp)
.LBB3720:
.LBB3717:
	.loc 3 257 0
	je	.L700
	movl	72(%rdi), %ebp
	movl	%esi, %r10d
	movl	80(%rdi), %r8d
	addl	$1, %esi
.LVL976:
	movl	76(%rdi), %r9d
	vmovss	.LC11(%rip), %xmm8
	vmovsd	104(%rdi), %xmm3
	leal	-1(%rbp), %ebx
	movl	%r8d, %r13d
	movl	%r8d, -12(%rsp)
.LBB3356:
.LBB3357:
.LBB3358:
.LBB3359:
	.loc 3 324 0
	vmovsd	.LC17(%rip), %xmm9
.LBE3359:
.LBE3358:
.LBE3357:
.LBE3356:
	.loc 3 257 0
	leal	-1(%r9), %eax
	andl	%ebx, %r10d
.LVL977:
	andl	%ebx, %esi
.LVL978:
	subl	$1, %r13d
	addl	%ebp, %r10d
	addl	%ebp, %esi
.LBB3703:
.LBB3687:
.LBB3671:
.LBB3655:
	.loc 3 324 0
	vsubsd	%xmm1, %xmm9, %xmm9
.LBE3655:
.LBE3671:
.LBE3687:
.LBE3703:
	.loc 3 257 0
	andl	%ebx, %r10d
	andl	%ebx, %esi
	movl	%r10d, %r8d
	vmovapd	%xmm6, %xmm5
	sall	$16, %r8d
	vsubsd	%xmm0, %xmm6, %xmm6
	orl	%r10d, %r8d
.LBB3704:
.LBB3688:
.LBB3672:
.LBB3656:
	.loc 3 340 0
	vmovddup	%xmm9, %xmm9
.LBE3656:
.LBE3672:
.LBE3688:
.LBE3704:
	.loc 3 257 0
	andl	$50331903, %r8d
	vmovsd	.LC12(%rip), %xmm4
	movl	%r8d, %r10d
.LBB3705:
.LBB3689:
.LBB3673:
.LBB3657:
	.loc 3 324 0
	vmovsd	.LC2(%rip), %xmm10
.LBE3657:
.LBE3673:
.LBE3689:
.LBE3705:
	.loc 3 257 0
	sall	$8, %r10d
	vmovddup	%xmm6, %xmm6
	orl	%r8d, %r10d
	vsubsd	%xmm0, %xmm4, %xmm0
.LVL979:
	andl	$50393103, %r10d
.LBB3706:
.LBB3690:
.LBB3674:
.LBB3658:
.LBB3360:
.LBB3361:
	.loc 4 23 0
	vmovss	.LC13(%rip), %xmm2
.LVL980:
.LBE3361:
.LBE3360:
.LBE3658:
.LBE3674:
.LBE3690:
.LBE3706:
	.loc 3 257 0
	movl	%r10d, %r8d
.LBB3707:
.LBB3691:
.LBB3675:
.LBB3659:
.LBB3376:
.LBB3377:
	.loc 4 39 0
	vmovss	.LC16(%rip), %xmm12
.LBE3377:
.LBE3376:
.LBE3659:
.LBE3675:
.LBE3691:
.LBE3707:
	.loc 3 257 0
	sall	$4, %r8d
	orl	%r10d, %r8d
	movl	%esi, %r10d
	andl	$51130563, %r8d
	sall	$16, %r10d
	orl	%esi, %r10d
	leal	0(,%r8,4), %r11d
	andl	$50331903, %r10d
	vmovddup	%xmm0, %xmm4
	orl	%r8d, %r11d
	movq	16(%rdi), %r8
	movl	%r10d, %edi
.LVL981:
	sall	$8, %edi
	andl	$153391689, %r11d
	orl	%r10d, %edi
.LBB3708:
.LBB3692:
.LBB3676:
.LBB3660:
.LBB3392:
.LBB3362:
	.loc 4 23 0
	vxorps	%xmm0, %xmm0, %xmm0
.LBE3362:
.LBE3392:
.LBE3660:
.LBE3676:
.LBE3692:
.LBE3708:
	.loc 3 257 0
	andl	$50393103, %edi
	movl	%edi, %esi
	sall	$4, %esi
	orl	%edi, %esi
	andl	$51130563, %esi
	leal	0(,%rsi,4), %r10d
.LBB3709:
.LBB3693:
.LBB3677:
.LBB3661:
	.loc 3 340 0
	vcvtpd2psx	%xmm9, %xmm9
.LBE3661:
.LBE3677:
.LBE3693:
.LBE3709:
	.loc 3 257 0
	orl	%esi, %r10d
.LBB3710:
.LBB3694:
.LBB3678:
.LBB3662:
	.loc 3 340 0
	movl	$-1, %esi
	.loc 3 321 0
	leal	(%rdx,%rsi), %ebx
.LBE3662:
.LBE3678:
.LBE3694:
.LBE3710:
	.loc 3 257 0
	andl	$153391689, %r10d
	vcvtpd2psx	%xmm6, %xmm6
.LBB3711:
.LBB3695:
.LBB3679:
.LBB3663:
.LBB3393:
.LBB3394:
	.loc 3 159 0
	andl	%eax, %ebx
	addl	%r9d, %ebx
	andl	%eax, %ebx
.LBB3395:
.LBB3396:
	.loc 3 19 0
	movl	%ebx, %edi
	sall	$16, %edi
.LBE3396:
.LBE3395:
.LBE3394:
.LBE3393:
.LBB3514:
.LBB3515:
	.loc 4 69 0
	vmovaps	%xmm9, %xmm11
.LBE3515:
.LBE3514:
.LBB3565:
.LBB3471:
.LBB3434:
.LBB3397:
	.loc 3 19 0
	orl	%ebx, %edi
.LBE3397:
.LBE3434:
.LBE3471:
.LBE3565:
	.loc 3 340 0
	vmovss	%xmm9, -24(%rsp)
	.loc 3 324 0
	vsubsd	%xmm1, %xmm10, %xmm9
.LBB3566:
.LBB3472:
.LBB3435:
.LBB3398:
	.loc 3 19 0
	andl	$50331903, %edi
.LBE3398:
.LBE3435:
.LBE3472:
.LBE3566:
.LBB3567:
.LBB3516:
	.loc 4 69 0
	vandps	%xmm8, %xmm11, %xmm11
.LBE3516:
.LBE3567:
.LBB3568:
.LBB3473:
.LBB3436:
.LBB3399:
	.loc 3 20 0
	movl	%edi, %ebx
.LBE3399:
.LBE3436:
.LBE3473:
.LBE3568:
.LBE3663:
.LBE3679:
.LBE3695:
.LBE3711:
	.loc 3 257 0
	vandps	%xmm8, %xmm6, %xmm6
.LBB3712:
.LBB3696:
.LBB3680:
.LBB3664:
.LBB3569:
.LBB3474:
.LBB3437:
.LBB3400:
	.loc 3 20 0
	sall	$8, %ebx
	orl	%edi, %ebx
.LBE3400:
.LBE3437:
.LBE3474:
.LBE3569:
	.loc 3 340 0
	vmovddup	%xmm9, %xmm9
.LBB3570:
.LBB3475:
.LBB3438:
.LBB3401:
	.loc 3 20 0
	andl	$50393103, %ebx
.LBE3401:
.LBE3438:
.LBE3475:
.LBE3570:
.LBB3571:
.LBB3363:
	.loc 4 23 0
	vsubss	%xmm6, %xmm2, %xmm7
.LBE3363:
.LBE3571:
.LBB3572:
.LBB3476:
.LBB3439:
.LBB3402:
	.loc 3 21 0
	movl	%ebx, %edi
.LBE3402:
.LBE3439:
.LBE3476:
.LBE3572:
.LBB3573:
.LBB3364:
	.loc 4 23 0
	vcmpngess	%xmm6, %xmm2, %xmm6
.LBE3364:
.LBE3573:
.LBB3574:
.LBB3477:
.LBB3440:
.LBB3403:
	.loc 3 21 0
	sall	$4, %edi
	orl	%ebx, %edi
.LBE3403:
.LBE3440:
	.loc 3 159 0
	movl	%edx, %ebx
.LBE3477:
.LBE3574:
	.loc 3 321 0
	addl	$1, %edx
.LVL982:
.LBB3575:
.LBB3478:
.LBB3441:
.LBB3404:
	.loc 3 21 0
	andl	$51130563, %edi
.LBE3404:
.LBE3441:
	.loc 3 159 0
	andl	%eax, %ebx
.LVL983:
	andl	%eax, %edx
.LVL984:
	addl	%r9d, %ebx
.LBE3478:
.LBE3575:
.LBB3576:
.LBB3365:
	.loc 4 23 0
	vandps	%xmm6, %xmm0, %xmm0
.LBE3365:
.LBE3576:
.LBB3577:
.LBB3479:
.LBB3442:
.LBB3405:
	.loc 3 22 0
	leal	0(,%rdi,4), %r12d
.LBE3405:
.LBE3442:
.LBE3479:
.LBE3577:
.LBB3578:
.LBB3366:
	.loc 4 23 0
	vandnps	%xmm2, %xmm6, %xmm6
.LBE3366:
.LBE3578:
.LBB3579:
.LBB3480:
	.loc 3 159 0
	andl	%eax, %ebx
	addl	%edx, %r9d
.LBB3443:
.LBB3406:
	.loc 3 22 0
	orl	%edi, %r12d
	.loc 3 19 0
	movl	%ebx, %edi
.LBE3406:
.LBE3443:
	.loc 3 159 0
	andl	%eax, %r9d
.LBE3480:
.LBE3579:
	.loc 3 340 0
	vcvtpd2psx	%xmm9, %xmm9
.LBB3580:
.LBB3481:
.LBB3444:
.LBB3407:
	.loc 3 19 0
	sall	$16, %edi
	movl	%r9d, %eax
	.loc 3 22 0
	andl	$153391689, %r12d
.LBE3407:
.LBE3444:
.LBE3481:
.LBE3580:
.LBB3581:
.LBB3367:
	.loc 4 23 0
	vorps	%xmm0, %xmm6, %xmm0
.LBE3367:
.LBE3581:
.LBB3582:
.LBB3482:
.LBB3445:
.LBB3408:
	.loc 3 19 0
	orl	%ebx, %edi
.LBE3408:
.LBE3445:
.LBE3482:
.LBE3582:
.LBE3664:
.LBE3680:
.LBE3696:
.LBE3712:
	.loc 3 257 0
	vcvtpd2psx	%xmm4, %xmm4
.LBB3713:
.LBB3697:
.LBB3681:
.LBB3665:
.LBB3583:
.LBB3483:
.LBB3446:
.LBB3409:
	.loc 3 19 0
	andl	$50331903, %edi
	sall	$16, %eax
	.loc 3 29 0
	addl	%r12d, %r12d
.LBE3409:
.LBE3446:
.LBE3483:
.LBE3583:
.LBB3584:
.LBB3368:
	.loc 4 23 0
	vmulss	%xmm0, %xmm7, %xmm0
.LBE3368:
.LBE3584:
.LBB3585:
.LBB3484:
.LBB3447:
.LBB3410:
	.loc 3 20 0
	movl	%edi, %ebx
	.loc 3 19 0
	orl	%r9d, %eax
	.loc 3 20 0
	sall	$8, %ebx
	orl	%edi, %ebx
	andl	$50393103, %ebx
.LBE3410:
.LBE3447:
.LBE3484:
.LBE3585:
.LBB3586:
.LBB3517:
	.loc 4 69 0
	vmovaps	%xmm9, %xmm10
.LBE3517:
.LBE3586:
	.loc 3 340 0
	vunpcklps	%xmm0, %xmm0, %xmm0
.LBB3587:
.LBB3485:
.LBB3448:
.LBB3411:
	.loc 3 21 0
	movl	%ebx, %edi
.LBE3411:
.LBE3448:
.LBE3485:
.LBE3587:
	.loc 3 340 0
	vmovss	%xmm9, -20(%rsp)
.LBB3588:
.LBB3486:
.LBB3449:
.LBB3412:
	.loc 3 21 0
	sall	$4, %edi
.LBE3412:
.LBE3449:
.LBE3486:
.LBE3588:
	.loc 3 324 0
	vmovsd	.LC18(%rip), %xmm9
.LBB3589:
.LBB3487:
.LBB3450:
.LBB3413:
	.loc 3 21 0
	orl	%ebx, %edi
.LBE3413:
.LBE3450:
.LBE3487:
.LBE3589:
.LBE3665:
.LBE3681:
.LBE3697:
.LBE3713:
	.loc 3 257 0
	vandps	%xmm8, %xmm4, %xmm4
.LBB3714:
.LBB3698:
.LBB3682:
.LBB3666:
.LBB3590:
.LBB3488:
.LBB3451:
.LBB3414:
	.loc 3 21 0
	andl	$51130563, %edi
.LBE3414:
.LBE3451:
.LBE3488:
.LBE3590:
	.loc 3 324 0
	vsubsd	%xmm1, %xmm9, %xmm1
.LVL985:
	.loc 3 340 0
	vcvtps2pd	%xmm0, %xmm7
.LBB3591:
.LBB3369:
	.loc 4 23 0
	vxorps	%xmm0, %xmm0, %xmm0
.LBE3369:
.LBE3591:
.LBB3592:
.LBB3489:
.LBB3452:
.LBB3415:
	.loc 3 22 0
	leal	0(,%rdi,4), %ebp
.LBE3415:
.LBE3452:
.LBE3489:
.LBE3592:
.LBB3593:
.LBB3370:
	.loc 4 23 0
	vsubss	%xmm4, %xmm2, %xmm6
.LBE3370:
.LBE3593:
.LBB3594:
.LBB3518:
	.loc 4 69 0
	vandps	%xmm8, %xmm10, %xmm10
.LBE3518:
.LBE3594:
.LBB3595:
.LBB3371:
	.loc 4 23 0
	vcmpngess	%xmm4, %xmm2, %xmm4
.LBE3371:
.LBE3595:
.LBB3596:
.LBB3490:
.LBB3453:
.LBB3416:
	.loc 3 22 0
	orl	%edi, %ebp
.LBE3416:
.LBE3453:
.LBE3490:
.LBE3596:
	.loc 3 340 0
	vmovddup	%xmm1, %xmm1
.LBB3597:
.LBB3491:
.LBB3454:
.LBB3417:
	.loc 3 22 0
	andl	$153391689, %ebp
.LBE3417:
.LBE3454:
.LBE3491:
.LBE3597:
.LBB3598:
.LBB3372:
	.loc 4 23 0
	vandps	%xmm4, %xmm0, %xmm0
.LBE3372:
.LBE3598:
.LBB3599:
.LBB3492:
.LBB3455:
.LBB3418:
	.loc 3 29 0
	addl	%ebp, %ebp
	.loc 3 19 0
	andl	$50331903, %eax
.LBE3418:
.LBE3455:
.LBE3492:
.LBE3599:
.LBB3600:
.LBB3373:
	.loc 4 23 0
	vandnps	%xmm2, %xmm4, %xmm4
.LBE3373:
.LBE3600:
.LBB3601:
.LBB3493:
.LBB3456:
.LBB3419:
	.loc 3 20 0
	movl	%eax, %edx
.LBE3419:
.LBE3456:
.LBE3493:
.LBE3601:
	.loc 3 340 0
	vcvtpd2psx	%xmm1, %xmm1
.LBB3602:
.LBB3494:
.LBB3457:
.LBB3420:
	.loc 3 20 0
	sall	$8, %edx
.LBE3420:
.LBE3457:
.LBE3494:
.LBE3602:
.LBB3603:
.LBB3374:
	.loc 4 23 0
	vorps	%xmm0, %xmm4, %xmm0
.LBE3374:
.LBE3603:
.LBB3604:
.LBB3495:
.LBB3458:
.LBB3421:
	.loc 3 20 0
	orl	%eax, %edx
	andl	$50393103, %edx
	vmovss	.LC14(%rip), %xmm2
	.loc 3 21 0
	movl	%edx, %eax
	vmovss	.LC15(%rip), %xmm4
.LBE3421:
.LBE3458:
.LBE3495:
.LBE3604:
.LBB3605:
.LBB3375:
	.loc 4 23 0
	vmulss	%xmm0, %xmm6, %xmm0
.LBE3375:
.LBE3605:
.LBB3606:
.LBB3496:
.LBB3459:
.LBB3422:
	.loc 3 21 0
	sall	$4, %eax
	orl	%edx, %eax
.LBE3422:
.LBE3459:
.LBE3496:
.LBE3606:
	.loc 3 340 0
	vmovapd	%xmm5, %xmm6
.LBB3607:
.LBB3497:
.LBB3460:
.LBB3423:
	.loc 3 21 0
	andl	$51130563, %eax
	.loc 3 22 0
	leal	0(,%rax,4), %ebx
.LBE3423:
.LBE3460:
.LBE3497:
.LBE3607:
.LBB3608:
.LBB3519:
	.loc 4 69 0
	vmovaps	%xmm1, %xmm9
.LBE3519:
.LBE3608:
	.loc 3 340 0
	vunpcklps	%xmm0, %xmm0, %xmm0
	vmovss	%xmm1, -16(%rsp)
.LBB3609:
.LBB3498:
.LBB3461:
.LBB3424:
	.loc 3 22 0
	orl	%eax, %ebx
.LBE3424:
.LBE3461:
.LBE3498:
.LBE3609:
.LBB3610:
.LBB3520:
	.loc 4 69 0
	vandps	%xmm8, %xmm9, %xmm9
.LBE3520:
.LBE3610:
.LBB3611:
.LBB3499:
.LBB3462:
.LBB3425:
	.loc 3 22 0
	andl	$153391689, %ebx
.LBE3425:
.LBE3462:
.LBE3499:
.LBE3611:
	.loc 3 340 0
	vcvtps2pd	%xmm0, %xmm0
.LBB3612:
.LBB3500:
.LBB3463:
.LBB3426:
	.loc 3 29 0
	addl	%ebx, %ebx
.LVL986:
.L705:
.LBE3426:
.LBE3463:
.LBE3500:
.LBE3612:
.LBE3666:
.LBE3682:
.LBE3698:
	.loc 3 313 0 discriminator 1
	vcvtsi2sd	%esi, %xmm1, %xmm1
	.loc 3 253 0 discriminator 1
	leal	(%rsi,%rcx), %edx
	.loc 3 313 0 discriminator 1
	andl	%r13d, %edx
	addl	-12(%rsp), %edx
	andl	%r13d, %edx
	movl	%edx, %eax
	sall	$16, %eax
	orl	%edx, %eax
	andl	$50331903, %eax
	vaddsd	.LC2(%rip), %xmm1, %xmm1
	movl	%eax, %edx
	sall	$8, %edx
	orl	%eax, %edx
	andl	$50393103, %edx
	movl	%edx, %eax
	sall	$4, %eax
	vsubsd	-8(%rsp), %xmm1, %xmm1
	orl	%edx, %eax
	andl	$51130563, %eax
	leal	0(,%rax,4), %edx
	orl	%eax, %edx
	andl	$153391689, %edx
	vmovddup	%xmm1, %xmm1
	sall	$2, %edx
	movl	%edx, %edi
	orl	%r11d, %edi
	vcvtpd2psx	%xmm1, %xmm1
.LBB3699:
.LBB3683:
.LBB3667:
.LBB3613:
.LBB3501:
.LBB3464:
.LBB3427:
	.loc 3 29 0 discriminator 1
	movl	%edi, %r14d
.LBE3427:
.LBE3464:
.LBE3501:
.LBE3613:
.LBE3667:
.LBE3683:
.LBE3699:
	.loc 3 313 0 discriminator 1
	vandps	%xmm8, %xmm1, %xmm1
	vucomiss	%xmm1, %xmm4
	setae	%al
	orl	%r10d, %edx
.LBB3700:
.LBB3684:
.LBB3668:
.LBB3614:
.LBB3378:
	.loc 4 41 0 discriminator 1
	vucomiss	%xmm1, %xmm2
	setae	%r9b
.LVL987:
.LBE3378:
.LBE3614:
.LBB3615:
.LBB3502:
.LBB3465:
.LBB3428:
	.loc 3 29 0 discriminator 1
	orl	%r12d, %r14d
.LBE3428:
.LBE3465:
.LBE3502:
.LBE3615:
.LBB3616:
.LBB3521:
	.loc 4 69 0 discriminator 1
	vucomiss	%xmm11, %xmm4
.LBE3521:
.LBE3616:
.LBB3617:
.LBB3503:
	.loc 3 166 0 discriminator 1
	movslq	%r14d, %r14
.LBE3503:
.LBE3617:
	.loc 3 340 0 discriminator 1
	vmulsd	(%r8,%r14,8), %xmm7, %xmm14
.LVL988:
.LBB3618:
.LBB3522:
	.loc 4 69 0 discriminator 1
	setae	%r14b
	jae	.L717
.LBE3522:
.LBB3523:
.LBB3524:
	.loc 4 73 0
	vucomiss	%xmm11, %xmm2
	vmovapd	%xmm5, %xmm13
	jb	.L720
	.loc 4 75 0
	vsubss	-24(%rsp), %xmm2, %xmm13
	.loc 4 73 0
	vunpcklps	%xmm13, %xmm13, %xmm13
	vcvtps2pd	%xmm13, %xmm13
.LVL989:
.L720:
.LBE3524:
.LBE3523:
.LBE3618:
.LBB3619:
.LBB3379:
	.loc 4 37 0
	testb	%al, %al
.LBE3379:
.LBE3619:
	.loc 3 340 0
	vmulsd	%xmm13, %xmm14, %xmm13
.LVL990:
.LBB3620:
.LBB3380:
	.loc 4 37 0
	jne	.L721
	.loc 4 41 0
	testb	%r9b, %r9b
	vmovapd	%xmm5, %xmm14
	je	.L722
	.loc 4 43 0
	vsubss	%xmm1, %xmm2, %xmm14
.LVL991:
	vmulss	%xmm4, %xmm14, %xmm15
	vmulss	%xmm15, %xmm14, %xmm14
.LVL992:
	vunpcklps	%xmm14, %xmm14, %xmm14
	vcvtps2pd	%xmm14, %xmm14
.L722:
.LBE3380:
.LBE3620:
	.loc 3 340 0
	vmulsd	%xmm14, %xmm13, %xmm14
.LBB3621:
.LBB3504:
.LBB3466:
.LBB3429:
	.loc 3 29 0
	movl	%edx, %r15d
	orl	%r12d, %r15d
.LBE3429:
.LBE3466:
.LBE3504:
.LBE3621:
.LBB3622:
.LBB3536:
	.loc 4 69 0
	testb	%r14b, %r14b
.LBE3536:
.LBE3622:
.LBB3623:
.LBB3505:
	.loc 3 166 0
	movslq	%r15d, %r15
.LBE3505:
.LBE3623:
	.loc 3 340 0
	vdivsd	%xmm3, %xmm14, %xmm14
	vaddsd	%xmm6, %xmm14, %xmm6
.LVL993:
	vmulsd	(%r8,%r15,8), %xmm0, %xmm14
.LVL994:
.LBB3624:
.LBB3537:
	.loc 4 69 0
	jne	.L723
.LBE3537:
.LBB3538:
.LBB3525:
	.loc 4 73 0
	vucomiss	%xmm11, %xmm2
	vmovapd	%xmm5, %xmm13
	jb	.L726
	.loc 4 75 0
	vsubss	-24(%rsp), %xmm2, %xmm13
	.loc 4 73 0
	vunpcklps	%xmm13, %xmm13, %xmm13
	vcvtps2pd	%xmm13, %xmm13
.LVL995:
.L726:
.LBE3525:
.LBE3538:
.LBE3624:
.LBB3625:
.LBB3381:
	.loc 4 37 0
	testb	%al, %al
.LBE3381:
.LBE3625:
	.loc 3 340 0
	vmulsd	%xmm13, %xmm14, %xmm13
.LVL996:
.LBB3626:
.LBB3382:
	.loc 4 37 0
	jne	.L727
	.loc 4 41 0
	testb	%r9b, %r9b
	vmovapd	%xmm5, %xmm14
	je	.L728
	.loc 4 43 0
	vsubss	%xmm1, %xmm2, %xmm14
.LVL997:
	vmulss	%xmm4, %xmm14, %xmm15
	vmulss	%xmm15, %xmm14, %xmm14
.LVL998:
	vunpcklps	%xmm14, %xmm14, %xmm14
	vcvtps2pd	%xmm14, %xmm14
.L728:
.LBE3382:
.LBE3626:
	.loc 3 340 0
	vmulsd	%xmm14, %xmm13, %xmm14
.LBB3627:
.LBB3506:
.LBB3467:
.LBB3430:
	.loc 3 29 0
	movl	%edi, %r14d
	orl	%ebp, %r14d
.LBE3430:
.LBE3467:
.LBE3506:
.LBE3627:
.LBB3628:
.LBB3539:
	.loc 4 69 0
	vucomiss	%xmm10, %xmm4
.LBE3539:
.LBE3628:
.LBB3629:
.LBB3507:
	.loc 3 166 0
	movslq	%r14d, %r14
.LBE3507:
.LBE3629:
	.loc 3 340 0
	vdivsd	%xmm3, %xmm14, %xmm14
	vmulsd	(%r8,%r14,8), %xmm7, %xmm13
.LBB3630:
.LBB3540:
	.loc 4 69 0
	setae	%r14b
.LBE3540:
.LBE3630:
	.loc 3 340 0
	vaddsd	%xmm14, %xmm6, %xmm14
.LVL999:
.LBB3631:
.LBB3541:
	.loc 4 69 0
	jae	.L729
.LBE3541:
.LBB3542:
.LBB3526:
	.loc 4 73 0
	vucomiss	%xmm10, %xmm2
	vmovapd	%xmm5, %xmm6
	jb	.L732
	.loc 4 75 0
	vsubss	-20(%rsp), %xmm2, %xmm6
	.loc 4 73 0
	vunpcklps	%xmm6, %xmm6, %xmm6
	vcvtps2pd	%xmm6, %xmm6
.LVL1000:
.L732:
.LBE3526:
.LBE3542:
.LBE3631:
.LBB3632:
.LBB3383:
	.loc 4 37 0
	testb	%al, %al
.LBE3383:
.LBE3632:
	.loc 3 340 0
	vmulsd	%xmm6, %xmm13, %xmm6
.LVL1001:
.LBB3633:
.LBB3384:
	.loc 4 37 0
	jne	.L733
	.loc 4 41 0
	testb	%r9b, %r9b
	vmovapd	%xmm5, %xmm13
	je	.L734
	.loc 4 43 0
	vsubss	%xmm1, %xmm2, %xmm13
.LVL1002:
	vmulss	%xmm4, %xmm13, %xmm15
	vmulss	%xmm15, %xmm13, %xmm13
.LVL1003:
	vunpcklps	%xmm13, %xmm13, %xmm13
	vcvtps2pd	%xmm13, %xmm13
.L734:
.LBE3384:
.LBE3633:
	.loc 3 340 0
	vmulsd	%xmm13, %xmm6, %xmm6
.LBB3634:
.LBB3508:
.LBB3468:
.LBB3431:
	.loc 3 29 0
	movl	%edx, %r15d
	orl	%ebp, %r15d
.LBE3431:
.LBE3468:
.LBE3508:
.LBE3634:
.LBB3635:
.LBB3543:
	.loc 4 69 0
	testb	%r14b, %r14b
.LBE3543:
.LBE3635:
.LBB3636:
.LBB3509:
	.loc 3 166 0
	movslq	%r15d, %r15
.LBE3509:
.LBE3636:
	.loc 3 340 0
	vdivsd	%xmm3, %xmm6, %xmm6
	vaddsd	%xmm14, %xmm6, %xmm6
.LVL1004:
	vmulsd	(%r8,%r15,8), %xmm0, %xmm14
.LVL1005:
.LBB3637:
.LBB3544:
	.loc 4 69 0
	jne	.L735
.LBE3544:
.LBB3545:
.LBB3527:
	.loc 4 73 0
	vucomiss	%xmm10, %xmm2
	vmovapd	%xmm5, %xmm13
	jb	.L738
	.loc 4 75 0
	vsubss	-20(%rsp), %xmm2, %xmm13
	.loc 4 73 0
	vunpcklps	%xmm13, %xmm13, %xmm13
	vcvtps2pd	%xmm13, %xmm13
.LVL1006:
.L738:
.LBE3527:
.LBE3545:
.LBE3637:
.LBB3638:
.LBB3385:
	.loc 4 37 0
	testb	%al, %al
.LBE3385:
.LBE3638:
	.loc 3 340 0
	vmulsd	%xmm13, %xmm14, %xmm13
.LVL1007:
.LBB3639:
.LBB3386:
	.loc 4 37 0
	jne	.L739
	.loc 4 41 0
	testb	%r9b, %r9b
	vmovapd	%xmm5, %xmm14
	je	.L740
	.loc 4 43 0
	vsubss	%xmm1, %xmm2, %xmm14
.LVL1008:
	vmulss	%xmm4, %xmm14, %xmm15
	vmulss	%xmm15, %xmm14, %xmm14
.LVL1009:
	vunpcklps	%xmm14, %xmm14, %xmm14
	vcvtps2pd	%xmm14, %xmm14
.L740:
.LBE3386:
.LBE3639:
	.loc 3 340 0
	vmulsd	%xmm14, %xmm13, %xmm13
.LBB3640:
.LBB3510:
.LBB3469:
.LBB3432:
	.loc 3 29 0
	orl	%ebx, %edi
.LBE3432:
.LBE3469:
.LBE3510:
.LBE3640:
.LBB3641:
.LBB3546:
	.loc 4 69 0
	vucomiss	%xmm9, %xmm4
.LBE3546:
.LBE3641:
.LBB3642:
.LBB3511:
	.loc 3 166 0
	movslq	%edi, %rdi
.LBE3511:
.LBE3642:
	.loc 3 340 0
	vmulsd	(%r8,%rdi,8), %xmm7, %xmm14
	vdivsd	%xmm3, %xmm13, %xmm13
.LBB3643:
.LBB3547:
	.loc 4 69 0
	setae	%dil
.LBE3547:
.LBE3643:
	.loc 3 340 0
	vaddsd	%xmm13, %xmm6, %xmm13
.LVL1010:
.LBB3644:
.LBB3548:
	.loc 4 69 0
	jae	.L764
.LBE3548:
.LBB3549:
.LBB3528:
	.loc 4 73 0
	vucomiss	%xmm9, %xmm2
	vmovapd	%xmm5, %xmm6
	jb	.L707
	.loc 4 75 0
	vsubss	-16(%rsp), %xmm2, %xmm6
	.loc 4 73 0
	vunpcklps	%xmm6, %xmm6, %xmm6
	vcvtps2pd	%xmm6, %xmm6
.LVL1011:
.L707:
.LBE3528:
.LBE3549:
.LBE3644:
.LBB3645:
.LBB3387:
	.loc 4 37 0
	testb	%al, %al
.LBE3387:
.LBE3645:
	.loc 3 340 0
	vmulsd	%xmm6, %xmm14, %xmm6
.LVL1012:
.LBB3646:
.LBB3388:
	.loc 4 37 0
	je	.L709
.LVL1013:
	.loc 4 39 0
	vmulss	%xmm1, %xmm1, %xmm14
	vmovss	.LC16(%rip), %xmm15
	vsubss	%xmm14, %xmm15, %xmm14
	.loc 4 37 0
	vunpcklps	%xmm14, %xmm14, %xmm14
	vcvtps2pd	%xmm14, %xmm14
.LVL1014:
.L710:
.LBE3388:
.LBE3646:
	.loc 3 340 0
	vmulsd	%xmm14, %xmm6, %xmm6
.LBB3647:
.LBB3512:
.LBB3470:
.LBB3433:
	.loc 3 29 0
	orl	%ebx, %edx
.LBE3433:
.LBE3470:
.LBE3512:
.LBE3647:
.LBB3648:
.LBB3550:
	.loc 4 69 0
	testb	%dil, %dil
.LBE3550:
.LBE3648:
.LBB3649:
.LBB3513:
	.loc 3 166 0
	movslq	%edx, %rdx
.LBE3513:
.LBE3649:
	.loc 3 340 0
	vmulsd	(%r8,%rdx,8), %xmm0, %xmm14
	vdivsd	%xmm3, %xmm6, %xmm6
	vaddsd	%xmm13, %xmm6, %xmm13
.LVL1015:
.LBB3650:
.LBB3551:
	.loc 4 69 0
	jne	.L711
.LBE3551:
.LBB3552:
.LBB3529:
	.loc 4 73 0
	vucomiss	%xmm9, %xmm2
	vmovapd	%xmm5, %xmm6
	jb	.L713
	.loc 4 75 0
	vsubss	-16(%rsp), %xmm2, %xmm6
	.loc 4 73 0
	vunpcklps	%xmm6, %xmm6, %xmm6
	vcvtps2pd	%xmm6, %xmm6
.LVL1016:
.L713:
.LBE3529:
.LBE3552:
.LBE3650:
.LBB3651:
.LBB3389:
	.loc 4 37 0
	testb	%al, %al
.LBE3389:
.LBE3651:
	.loc 3 340 0
	vmulsd	%xmm6, %xmm14, %xmm6
.LVL1017:
.LBB3652:
.LBB3390:
	.loc 4 37 0
	je	.L715
.LVL1018:
	.loc 4 39 0
	vmulss	%xmm1, %xmm1, %xmm1
.LVL1019:
	vmovss	.LC16(%rip), %xmm15
	vsubss	%xmm1, %xmm15, %xmm14
.LVL1020:
	.loc 4 37 0
	vunpcklps	%xmm14, %xmm14, %xmm14
.LVL1021:
	vcvtps2pd	%xmm14, %xmm14
.L716:
.LBE3390:
.LBE3652:
	.loc 3 340 0
	vmulsd	%xmm14, %xmm6, %xmm6
.LBE3668:
.LBE3684:
.LBE3700:
	.loc 3 313 0
	addl	$1, %esi
	cmpl	$2, %esi
.LBB3701:
.LBB3685:
.LBB3669:
	.loc 3 340 0
	vdivsd	%xmm3, %xmm6, %xmm6
	vaddsd	%xmm6, %xmm13, %xmm6
.LVL1022:
.LBE3669:
.LBE3685:
.LBE3701:
	.loc 3 313 0
	jne	.L705
.LVL1023:
.L700:
.LBE3714:
.LBE3717:
.LBE3720:
	.loc 3 434 0
	popq	%rbx
	.cfi_remember_state
	.cfi_def_cfa_offset 48
	popq	%rbp
	.cfi_def_cfa_offset 40
	popq	%r12
	.cfi_def_cfa_offset 32
	popq	%r13
	.cfi_def_cfa_offset 24
	popq	%r14
	.cfi_def_cfa_offset 16
	popq	%r15
	.cfi_def_cfa_offset 8
	vmovapd	%xmm6, %xmm0
	ret
.LVL1024:
	.p2align 4,,10
	.p2align 3
.L715:
	.cfi_restore_state
.LBB3721:
.LBB3718:
.LBB3715:
.LBB3702:
.LBB3686:
.LBB3670:
.LBB3653:
.LBB3391:
	.loc 4 41 0
	testb	%r9b, %r9b
	vmovapd	%xmm5, %xmm14
	je	.L716
	.loc 4 43 0
	vsubss	%xmm1, %xmm2, %xmm1
.LVL1025:
	vmulss	%xmm4, %xmm1, %xmm14
	vmulss	%xmm14, %xmm1, %xmm14
	vunpcklps	%xmm14, %xmm14, %xmm14
	vcvtps2pd	%xmm14, %xmm14
	jmp	.L716
.LVL1026:
	.p2align 4,,10
	.p2align 3
.L709:
	.loc 4 41 0
	testb	%r9b, %r9b
	vmovapd	%xmm5, %xmm14
	je	.L710
	.loc 4 43 0
	vsubss	%xmm1, %xmm2, %xmm14
.LVL1027:
	vmulss	%xmm4, %xmm14, %xmm15
	vmulss	%xmm15, %xmm14, %xmm14
.LVL1028:
	vunpcklps	%xmm14, %xmm14, %xmm14
	vcvtps2pd	%xmm14, %xmm14
	jmp	.L710
.LVL1029:
	.p2align 4,,10
	.p2align 3
.L739:
	.loc 4 39 0
	vmulss	%xmm1, %xmm1, %xmm14
	vmovss	.LC16(%rip), %xmm15
	vsubss	%xmm14, %xmm15, %xmm14
	.loc 4 43 0
	vunpcklps	%xmm14, %xmm14, %xmm14
	vcvtps2pd	%xmm14, %xmm14
	jmp	.L740
.LVL1030:
	.p2align 4,,10
	.p2align 3
.L733:
	.loc 4 39 0
	vmulss	%xmm1, %xmm1, %xmm13
	vmovss	.LC16(%rip), %xmm15
	vsubss	%xmm13, %xmm15, %xmm13
	.loc 4 43 0
	vunpcklps	%xmm13, %xmm13, %xmm13
	vcvtps2pd	%xmm13, %xmm13
	jmp	.L734
.LVL1031:
	.p2align 4,,10
	.p2align 3
.L721:
	.loc 4 39 0
	vmulss	%xmm1, %xmm1, %xmm14
	vsubss	%xmm14, %xmm12, %xmm14
	.loc 4 43 0
	vunpcklps	%xmm14, %xmm14, %xmm14
	vcvtps2pd	%xmm14, %xmm14
	jmp	.L722
.LVL1032:
	.p2align 4,,10
	.p2align 3
.L727:
	.loc 4 39 0
	vmulss	%xmm1, %xmm1, %xmm14
	vmovss	.LC16(%rip), %xmm15
	vsubss	%xmm14, %xmm15, %xmm14
	.loc 4 43 0
	vunpcklps	%xmm14, %xmm14, %xmm14
	vcvtps2pd	%xmm14, %xmm14
	jmp	.L728
.LVL1033:
	.p2align 4,,10
	.p2align 3
.L723:
.LBE3391:
.LBE3653:
.LBB3654:
.LBB3553:
	.loc 4 71 0
	vmovss	.LC20(%rip), %xmm15
	vmulss	-24(%rsp), %xmm15, %xmm13
.LBE3553:
.LBB3554:
.LBB3530:
	.loc 4 73 0
	vunpcklps	%xmm13, %xmm13, %xmm13
	vcvtps2pd	%xmm13, %xmm13
	jmp	.L726
.LVL1034:
	.p2align 4,,10
	.p2align 3
.L729:
.LBE3530:
.LBE3554:
.LBB3555:
	.loc 4 71 0
	vmovss	.LC20(%rip), %xmm15
	vmulss	-20(%rsp), %xmm15, %xmm6
.LBE3555:
.LBB3556:
.LBB3531:
	.loc 4 73 0
	vunpcklps	%xmm6, %xmm6, %xmm6
	vcvtps2pd	%xmm6, %xmm6
	jmp	.L732
.LVL1035:
	.p2align 4,,10
	.p2align 3
.L717:
.LBE3531:
.LBE3556:
.LBB3557:
	.loc 4 71 0
	vmovss	.LC20(%rip), %xmm15
	vmulss	-24(%rsp), %xmm15, %xmm13
.LBE3557:
.LBB3558:
.LBB3532:
	.loc 4 73 0
	vunpcklps	%xmm13, %xmm13, %xmm13
	vcvtps2pd	%xmm13, %xmm13
	jmp	.L720
.LVL1036:
	.p2align 4,,10
	.p2align 3
.L711:
.LBE3532:
.LBE3558:
.LBB3559:
	.loc 4 71 0
	vmovss	.LC20(%rip), %xmm15
	vmulss	-16(%rsp), %xmm15, %xmm6
.LBE3559:
.LBB3560:
.LBB3533:
	.loc 4 73 0
	vunpcklps	%xmm6, %xmm6, %xmm6
	vcvtps2pd	%xmm6, %xmm6
	jmp	.L713
.LVL1037:
	.p2align 4,,10
	.p2align 3
.L764:
.LBE3533:
.LBE3560:
.LBB3561:
	.loc 4 71 0
	vmovss	.LC20(%rip), %xmm15
	vmulss	-16(%rsp), %xmm15, %xmm6
.LBE3561:
.LBB3562:
.LBB3534:
	.loc 4 73 0
	vunpcklps	%xmm6, %xmm6, %xmm6
	vcvtps2pd	%xmm6, %xmm6
	jmp	.L707
.LVL1038:
	.p2align 4,,10
	.p2align 3
.L735:
.LBE3534:
.LBE3562:
.LBB3563:
	.loc 4 71 0
	vmovss	.LC20(%rip), %xmm15
	vmulss	-20(%rsp), %xmm15, %xmm13
.LBE3563:
.LBB3564:
.LBB3535:
	.loc 4 73 0
	vunpcklps	%xmm13, %xmm13, %xmm13
	vcvtps2pd	%xmm13, %xmm13
	jmp	.L738
.LBE3535:
.LBE3564:
.LBE3654:
.LBE3670:
.LBE3686:
.LBE3702:
.LBE3715:
.LBE3718:
.LBE3721:
	.cfi_endproc
.LFE2318:
	.size	_ZN12FieldDataCPU7intrpETILi0EL15FieldData_deriv2EEEddddiii, .-_ZN12FieldDataCPU7intrpETILi0EL15FieldData_deriv2EEEddddiii
	.section	.text._ZN12FieldDataCPU7intrpETILi1EL15FieldData_deriv2EEEddddiii,"axG",@progbits,_ZN12FieldDataCPU7intrpETILi1EL15FieldData_deriv2EEEddddiii,comdat
	.align 2
	.p2align 4,,15
	.weak	_ZN12FieldDataCPU7intrpETILi1EL15FieldData_deriv2EEEddddiii
	.type	_ZN12FieldDataCPU7intrpETILi1EL15FieldData_deriv2EEEddddiii, @function
_ZN12FieldDataCPU7intrpETILi1EL15FieldData_deriv2EEEddddiii:
.LFB2319:
	.loc 3 253 0
	.cfi_startproc
.LVL1039:
	pushq	%r15
	.cfi_def_cfa_offset 16
	.cfi_offset 15, -16
.LBB3741:
.LBB3742:
	.loc 3 296 0
	vxorpd	%xmm13, %xmm13, %xmm13
.LBE3742:
.LBE3741:
	.loc 3 253 0
	pushq	%r14
	.cfi_def_cfa_offset 24
	.cfi_offset 14, -24
	pushq	%r13
	.cfi_def_cfa_offset 32
	.cfi_offset 13, -32
	pushq	%r12
	.cfi_def_cfa_offset 40
	.cfi_offset 12, -40
	pushq	%rbp
	.cfi_def_cfa_offset 48
	.cfi_offset 6, -48
	pushq	%rbx
	.cfi_def_cfa_offset 56
	.cfi_offset 3, -56
.LBB3985:
.LBB3982:
	.loc 3 257 0
	cmpl	$1, 92(%rdi)
.LBE3982:
.LBE3985:
	.loc 3 253 0
	vmovsd	%xmm2, -24(%rsp)
	movl	%ecx, -12(%rsp)
.LBB3986:
.LBB3983:
	.loc 3 257 0
	je	.L766
	movl	72(%rdi), %r10d
	leal	-1(%rsi), %r11d
	movl	80(%rdi), %ecx
.LVL1040:
	vmovsd	.LC17(%rip), %xmm11
	vmovss	.LC11(%rip), %xmm12
	vmovss	.LC15(%rip), %xmm8
	movl	76(%rdi), %r8d
	leal	-1(%r10), %r9d
	vsubsd	%xmm0, %xmm11, %xmm11
	movl	%ecx, -16(%rsp)
	subl	$1, %ecx
	vmovsd	.LC2(%rip), %xmm2
.LVL1041:
	andl	%r9d, %r11d
	movl	%ecx, -28(%rsp)
	leal	-1(%r8), %eax
	addl	%r10d, %r11d
	vsubsd	%xmm0, %xmm2, %xmm10
	andl	%r9d, %r11d
	vmovddup	%xmm11, %xmm11
	movl	%r11d, %ecx
	vmovsd	104(%rdi), %xmm4
	sall	$16, %ecx
	vmovsd	.LC18(%rip), %xmm9
	orl	%r11d, %ecx
	vmovddup	%xmm10, %xmm10
	andl	$50331903, %ecx
	vsubsd	%xmm0, %xmm9, %xmm0
.LVL1042:
	movl	%ecx, %r11d
.LBB3743:
.LBB3744:
.LBB3745:
.LBB3746:
.LBB3747:
.LBB3748:
	.loc 4 41 0
	vmovss	.LC14(%rip), %xmm7
.LBE3748:
.LBE3747:
.LBE3746:
.LBE3745:
.LBE3744:
.LBE3743:
	.loc 3 257 0
	vcvtpd2psx	%xmm11, %xmm11
	sall	$8, %r11d
	orl	%ecx, %r11d
	vmovddup	%xmm0, %xmm9
	andl	$50393103, %r11d
.LBB3966:
.LBB3947:
.LBB3928:
.LBB3909:
	.loc 3 367 0
	vsubsd	%xmm1, %xmm13, %xmm0
.LBE3909:
.LBE3928:
.LBE3947:
.LBE3966:
	.loc 3 257 0
	movl	%r11d, %ecx
	vxorps	%xmm2, %xmm2, %xmm2
	sall	$4, %ecx
.LBB3967:
.LBB3948:
.LBB3929:
.LBB3910:
.LBB3769:
.LBB3749:
	.loc 4 41 0
	vmovapd	%xmm13, %xmm3
.LBE3749:
.LBE3769:
.LBE3910:
.LBE3929:
.LBE3948:
.LBE3967:
	.loc 3 257 0
	orl	%r11d, %ecx
	movl	%esi, %r11d
	andl	$51130563, %ecx
.LBB3968:
.LBB3949:
.LBB3930:
.LBB3911:
	.loc 3 380 0
	vmovddup	%xmm0, %xmm0
.LBE3911:
.LBE3930:
.LBE3949:
.LBE3968:
	.loc 3 257 0
	leal	0(,%rcx,4), %ebp
	vandps	%xmm12, %xmm11, %xmm11
	vcvtpd2psx	%xmm10, %xmm10
	orl	%ecx, %ebp
	movq	24(%rdi), %rcx
	andl	$153391689, %ebp
	vmovss	.LC13(%rip), %xmm6
	vucomiss	%xmm11, %xmm8
	vcvtpd2psx	%xmm9, %xmm9
.LBB3969:
.LBB3950:
.LBB3931:
.LBB3912:
	.loc 3 380 0
	vcvtpd2psx	%xmm0, %xmm0
.LBE3912:
.LBE3931:
.LBE3950:
.LBE3969:
	.loc 3 257 0
	setae	%r14b
	andl	%r9d, %r11d
	addl	%r10d, %r11d
	vandps	%xmm12, %xmm10, %xmm10
	andl	%r9d, %r11d
	movl	%r11d, %edi
.LVL1043:
	sall	$16, %edi
	orl	%r11d, %edi
	vandps	%xmm12, %xmm9, %xmm9
	andl	$50331903, %edi
	movl	%edi, %r11d
.LBB3970:
.LBB3951:
.LBB3932:
.LBB3913:
	.loc 3 380 0
	vmovss	%xmm0, -40(%rsp)
.LBE3913:
.LBE3932:
.LBE3951:
.LBE3970:
	.loc 3 257 0
	sall	$8, %r11d
.LBB3971:
.LBB3952:
.LBB3933:
.LBB3914:
.LBB3770:
.LBB3771:
	.loc 4 56 0
	vandps	%xmm12, %xmm0, %xmm0
.LBE3771:
.LBE3770:
.LBE3914:
.LBE3933:
.LBE3952:
.LBE3971:
	.loc 3 257 0
	orl	%edi, %r11d
	andl	$50393103, %r11d
	movl	%r11d, %edi
.LBB3972:
.LBB3953:
.LBB3934:
.LBB3915:
.LBB3793:
.LBB3782:
	.loc 4 56 0
	vmovss	%xmm0, -8(%rsp)
.LBE3782:
.LBE3793:
.LBE3915:
.LBE3934:
.LBE3953:
.LBE3972:
	.loc 3 257 0
	sall	$4, %edi
.LBB3973:
.LBB3954:
.LBB3935:
.LBB3916:
	.loc 3 367 0
	vmovsd	.LC12(%rip), %xmm0
.LBE3916:
.LBE3935:
.LBE3954:
.LBE3973:
	.loc 3 257 0
	orl	%r11d, %edi
	andl	$51130563, %edi
.LBB3974:
.LBB3955:
.LBB3936:
.LBB3917:
	.loc 3 367 0
	vsubsd	%xmm1, %xmm0, %xmm0
.LBE3917:
.LBE3936:
.LBE3955:
.LBE3974:
	.loc 3 257 0
	leal	0(,%rdi,4), %r11d
	orl	%edi, %r11d
	andl	$153391689, %r11d
.LBB3975:
.LBB3956:
.LBB3937:
.LBB3918:
	.loc 3 380 0
	vmovddup	%xmm0, %xmm0
.LBE3918:
.LBE3937:
.LBE3956:
.LBE3975:
	.loc 3 257 0
	vucomiss	%xmm10, %xmm8
	movl	%r11d, -36(%rsp)
.LBB3976:
.LBB3957:
.LBB3938:
.LBB3919:
	.loc 3 380 0
	vcvtpd2psx	%xmm0, %xmm0
.LBE3919:
.LBE3938:
.LBE3957:
.LBE3976:
	.loc 3 257 0
	setae	%r13b
	addl	$1, %esi
.LVL1044:
	andl	%r9d, %esi
.LVL1045:
	addl	%esi, %r10d
	andl	%r9d, %r10d
	movl	%r10d, %r9d
	sall	$16, %r9d
	orl	%r10d, %r9d
.LBB3977:
.LBB3958:
.LBB3939:
.LBB3920:
	.loc 3 380 0
	vmovss	%xmm0, -44(%rsp)
.LBE3920:
.LBE3939:
.LBE3958:
.LBE3977:
	.loc 3 257 0
	andl	$50331903, %r9d
	movl	%r9d, %edi
	sall	$8, %edi
	orl	%r9d, %edi
.LBB3978:
.LBB3959:
.LBB3940:
.LBB3921:
.LBB3794:
.LBB3795:
	.loc 3 159 0
	movl	%eax, %r9d
.LBE3795:
.LBE3794:
.LBE3921:
.LBE3940:
.LBE3959:
.LBE3978:
	.loc 3 257 0
	andl	$50393103, %edi
	movl	%edi, %esi
	sall	$4, %esi
	orl	%edi, %esi
	andl	$51130563, %esi
	leal	0(,%rsi,4), %r11d
	orl	%esi, %r11d
.LBB3979:
.LBB3960:
.LBB3941:
.LBB3922:
.LBB3827:
.LBB3750:
	.loc 4 41 0
	movl	$-1, %esi
.LBE3750:
.LBE3827:
.LBE3922:
.LBE3941:
.LBE3960:
.LBE3979:
	.loc 3 257 0
	andl	$153391689, %r11d
	vucomiss	%xmm9, %xmm8
	movl	%r11d, -32(%rsp)
	setae	%r12b
.LBB3980:
.LBB3961:
.LBB3942:
.LBB3923:
.LBB3828:
.LBB3751:
	.loc 4 41 0
	vucomiss	%xmm11, %xmm7
	setae	-3(%rsp)
	vucomiss	%xmm10, %xmm7
	setae	-2(%rsp)
	vucomiss	%xmm9, %xmm7
	setae	-1(%rsp)
.LBE3751:
.LBE3828:
.LBB3829:
.LBB3812:
	.loc 3 159 0
	andl	%edx, %r9d
.LBE3812:
.LBE3829:
	.loc 3 364 0
	addl	$1, %edx
.LVL1046:
.LBB3830:
.LBB3813:
	.loc 3 159 0
	andl	%eax, %edx
.LVL1047:
	addl	%r8d, %r9d
	addl	%r8d, %edx
	andl	%eax, %r9d
	andl	%eax, %edx
.LBB3796:
.LBB3797:
	.loc 3 19 0
	movl	%r9d, %edi
	movl	%edx, %eax
	sall	$16, %edi
	sall	$16, %eax
	orl	%r9d, %edi
	orl	%edx, %eax
	andl	$50331903, %edi
	andl	$50331903, %eax
	.loc 3 20 0
	movl	%edi, %r9d
	movl	%eax, %edx
	sall	$8, %r9d
	sall	$8, %edx
	orl	%edi, %r9d
	orl	%eax, %edx
	andl	$50393103, %r9d
	andl	$50393103, %edx
	.loc 3 21 0
	movl	%r9d, %edi
	movl	%edx, %eax
	sall	$4, %edi
	sall	$4, %eax
	orl	%r9d, %edi
	orl	%edx, %eax
	andl	$51130563, %edi
	andl	$51130563, %eax
	.loc 3 22 0
	leal	0(,%rdi,4), %r9d
	leal	0(,%rax,4), %r8d
	orl	%edi, %r9d
	orl	%eax, %r8d
	andl	$153391689, %r9d
	andl	$153391689, %r8d
	.loc 3 29 0
	addl	%r9d, %r9d
	addl	%r8d, %r8d
.LVL1048:
.L767:
.LBE3797:
.LBE3796:
.LBE3813:
.LBE3830:
.LBE3923:
.LBE3942:
.LBE3961:
	.loc 3 356 0 discriminator 1
	vcvtsi2sd	%esi, %xmm0, %xmm0
	.loc 3 253 0 discriminator 1
	movl	-12(%rsp), %edx
	.loc 3 356 0 discriminator 1
	movl	-36(%rsp), %r10d
	.loc 3 253 0 discriminator 1
	addl	%esi, %edx
	.loc 3 356 0 discriminator 1
	andl	-28(%rsp), %edx
	addl	-16(%rsp), %edx
	andl	-28(%rsp), %edx
	movl	%edx, %eax
	sall	$16, %eax
	vaddsd	.LC2(%rip), %xmm0, %xmm0
	orl	%edx, %eax
	andl	$50331903, %eax
	movl	%eax, %edx
	sall	$8, %edx
	orl	%eax, %edx
	andl	$50393103, %edx
	vsubsd	-24(%rsp), %xmm0, %xmm0
	movl	%edx, %eax
